 8000  4C 76 82  JMP   $8276          | kickstart.a65:76
 8003  EA        NOP                  | kickstart.a65:77
 8004  4C A8 96  JMP   $96A8          | kickstart.a65:78
 8007  EA        NOP                  | kickstart.a65:79
 8008  4C 00 82  JMP   $8200          | kickstart.a65:80
 800B  EA        NOP                  | kickstart.a65:81
 800C  4C 00 82  JMP   $8200          | kickstart.a65:82
 800F  EA        NOP                  | kickstart.a65:83
 8010  4C 00 82  JMP   $8200          | kickstart.a65:84
 8013  EA        NOP                  | kickstart.a65:85
 8014  4C 00 82  JMP   $8200          | kickstart.a65:86
 8017  EA        NOP                  | kickstart.a65:87
 8018  4C 00 82  JMP   $8200          | kickstart.a65:88
 801B  EA        NOP                  | kickstart.a65:89
 801C  4C 00 82  JMP   $8200          | kickstart.a65:90
 801F  EA        NOP                  | kickstart.a65:91
 8020  4C 00 82  JMP   $8200          | kickstart.a65:95
 8023  EA        NOP                  | kickstart.a65:96
 8024  4C 00 82  JMP   $8200          | kickstart.a65:97
 8027  EA        NOP                  | kickstart.a65:98
 8028  4C 00 82  JMP   $8200          | kickstart.a65:99
 802B  EA        NOP                  | kickstart.a65:100
 802C  4C 00 82  JMP   $8200          | kickstart.a65:101
 802F  EA        NOP                  | kickstart.a65:102
 8030  4C 00 82  JMP   $8200          | kickstart.a65:103
 8033  EA        NOP                  | kickstart.a65:104
 8034  4C 00 82  JMP   $8200          | kickstart.a65:105
 8037  EA        NOP                  | kickstart.a65:106
 8038  4C 00 82  JMP   $8200          | kickstart.a65:107
 803B  EA        NOP                  | kickstart.a65:108
 803C  4C 00 82  JMP   $8200          | kickstart.a65:109
 803F  EA        NOP                  | kickstart.a65:110
 8040  4C 00 82  JMP   $8200          | kickstart.a65:114
 8043  EA        NOP                  | kickstart.a65:115
 8044  4C 00 82  JMP   $8200          | kickstart.a65:116
 8047  EA        NOP                  | kickstart.a65:117
 8048  4C 00 82  JMP   $8200          | kickstart.a65:118
 804B  EA        NOP                  | kickstart.a65:119
 804C  4C 00 82  JMP   $8200          | kickstart.a65:120
 804F  EA        NOP                  | kickstart.a65:121
 8050  4C 00 82  JMP   $8200          | kickstart.a65:122
 8053  EA        NOP                  | kickstart.a65:123
 8054  4C 00 82  JMP   $8200          | kickstart.a65:124
 8057  EA        NOP                  | kickstart.a65:125
 8058  4C 00 82  JMP   $8200          | kickstart.a65:126
 805B  EA        NOP                  | kickstart.a65:127
 805C  4C 00 82  JMP   $8200          | kickstart.a65:128
 805F  EA        NOP                  | kickstart.a65:129
 8060  4C 00 82  JMP   $8200          | kickstart.a65:133
 8063  EA        NOP                  | kickstart.a65:134
 8064  4C 00 82  JMP   $8200          | kickstart.a65:135
 8067  EA        NOP                  | kickstart.a65:136
 8068  4C 00 82  JMP   $8200          | kickstart.a65:137
 806B  EA        NOP                  | kickstart.a65:138
 806C  4C 00 82  JMP   $8200          | kickstart.a65:139
 806F  EA        NOP                  | kickstart.a65:140
 8070  4C 00 82  JMP   $8200          | kickstart.a65:141
 8073  EA        NOP                  | kickstart.a65:142
 8074  4C 00 82  JMP   $8200          | kickstart.a65:143
 8077  EA        NOP                  | kickstart.a65:144
 8078  4C 00 82  JMP   $8200          | kickstart.a65:145
 807B  EA        NOP                  | kickstart.a65:146
 807C  4C 00 82  JMP   $8200          | kickstart.a65:147
 807F  EA        NOP                  | kickstart.a65:148
 8080  4C 00 82  JMP   $8200          | kickstart.a65:152
 8083  EA        NOP                  | kickstart.a65:153
 8084  4C 00 82  JMP   $8200          | kickstart.a65:154
 8087  EA        NOP                  | kickstart.a65:155
 8088  4C 00 82  JMP   $8200          | kickstart.a65:156
 808B  EA        NOP                  | kickstart.a65:157
 808C  4C 00 82  JMP   $8200          | kickstart.a65:158
 808F  EA        NOP                  | kickstart.a65:159
 8090  4C 00 82  JMP   $8200          | kickstart.a65:160
 8093  EA        NOP                  | kickstart.a65:161
 8094  4C 00 82  JMP   $8200          | kickstart.a65:162
 8097  EA        NOP                  | kickstart.a65:163
 8098  4C 00 82  JMP   $8200          | kickstart.a65:164
 809B  EA        NOP                  | kickstart.a65:165
 809C  4C 00 82  JMP   $8200          | kickstart.a65:166
 809F  EA        NOP                  | kickstart.a65:167
 80A0  4C 00 82  JMP   $8200          | kickstart.a65:171
 80A3  EA        NOP                  | kickstart.a65:172
 80A4  4C 00 82  JMP   $8200          | kickstart.a65:173
 80A7  EA        NOP                  | kickstart.a65:174
 80A8  4C 00 82  JMP   $8200          | kickstart.a65:175
 80AB  EA        NOP                  | kickstart.a65:176
 80AC  4C 00 82  JMP   $8200          | kickstart.a65:177
 80AF  EA        NOP                  | kickstart.a65:178
 80B0  4C 00 82  JMP   $8200          | kickstart.a65:179
 80B3  EA        NOP                  | kickstart.a65:180
 80B4  4C 00 82  JMP   $8200          | kickstart.a65:181
 80B7  EA        NOP                  | kickstart.a65:182
 80B8  4C 00 82  JMP   $8200          | kickstart.a65:183
 80BB  EA        NOP                  | kickstart.a65:184
 80BC  4C 00 82  JMP   $8200          | kickstart.a65:185
 80BF  EA        NOP                  | kickstart.a65:186
 80C0  4C 00 82  JMP   $8200          | kickstart.a65:190
 80C3  EA        NOP                  | kickstart.a65:191
 80C4  4C 00 82  JMP   $8200          | kickstart.a65:192
 80C7  EA        NOP                  | kickstart.a65:193
 80C8  4C 13 98  JMP   $9813          | kickstart.a65:195
 80CB  EA        NOP                  | kickstart.a65:196
 80CC  4C 00 82  JMP   $8200          | kickstart.a65:199
 80CF  EA        NOP                  | kickstart.a65:200
 80D0  4C 00 82  JMP   $8200          | kickstart.a65:201
 80D3  EA        NOP                  | kickstart.a65:202
 80D4  4C 00 82  JMP   $8200          | kickstart.a65:203
 80D7  EA        NOP                  | kickstart.a65:204
 80D8  4C 00 82  JMP   $8200          | kickstart.a65:205
 80DB  EA        NOP                  | kickstart.a65:206
 80DC  4C 00 82  JMP   $8200          | kickstart.a65:207
 80DF  EA        NOP                  | kickstart.a65:208
 80E0  4C 00 82  JMP   $8200          | kickstart.a65:212
 80E3  EA        NOP                  | kickstart.a65:213
 80E4  4C 00 82  JMP   $8200          | kickstart.a65:214
 80E7  EA        NOP                  | kickstart.a65:215
 80E8  4C 00 82  JMP   $8200          | kickstart.a65:216
 80EB  EA        NOP                  | kickstart.a65:217
 80EC  4C 00 82  JMP   $8200          | kickstart.a65:218
 80EF  EA        NOP                  | kickstart.a65:219
 80F0  4C 00 82  JMP   $8200          | kickstart.a65:220
 80F3  EA        NOP                  | kickstart.a65:221
 80F4  4C 00 82  JMP   $8200          | kickstart.a65:222
 80F7  EA        NOP                  | kickstart.a65:223
 80F8  4C 00 82  JMP   $8200          | kickstart.a65:224
 80FB  EA        NOP                  | kickstart.a65:225
 80FC  4C 00 82  JMP   $8200          | kickstart.a65:226
 80FF  EA        NOP                  | kickstart.a65:227
 8100  4C FD 9A  JMP   $9AFD          | kickstart.a65:232
 8103  EA        NOP                  | kickstart.a65:233
 8104  4C 50 96  JMP   $9650          | kickstart.a65:235
 8107  EA        NOP                  | kickstart.a65:236
 8108  4C EB 97  JMP   $97EB          | kickstart.a65:238
 810B  EA        NOP                  | kickstart.a65:239
 810C  4C 25 98  JMP   $9825          | kickstart.a65:241
 810F  EA        NOP                  | kickstart.a65:242
 8110  4C 62 9A  JMP   $9A62          | kickstart.a65:244
 8113  EA        NOP                  | kickstart.a65:245
 8114  4C 85 9A  JMP   $9A85          | kickstart.a65:247
 8117  EA        NOP                  | kickstart.a65:248
 8118  4C 00 82  JMP   $8200          | kickstart.a65:250
 811B  EA        NOP                  | kickstart.a65:251
 811C  4C 00 82  JMP   $8200          | kickstart.a65:252
 811F  EA        NOP                  | kickstart.a65:253
 8120  4C 00 82  JMP   $8200          | kickstart.a65:254
 8123  EA        NOP                  | kickstart.a65:255
 8124  4C 00 82  JMP   $8200          | kickstart.a65:256
 8127  EA        NOP                  | kickstart.a65:257
 8128  4C 00 82  JMP   $8200          | kickstart.a65:258
 812B  EA        NOP                  | kickstart.a65:259
 812C  4C 00 82  JMP   $8200          | kickstart.a65:260
 812F  EA        NOP                  | kickstart.a65:261
 8130  4C 00 82  JMP   $8200          | kickstart.a65:262
 8133  EA        NOP                  | kickstart.a65:263
 8134  4C 00 82  JMP   $8200          | kickstart.a65:264
 8137  EA        NOP                  | kickstart.a65:265
 8138  4C 00 82  JMP   $8200          | kickstart.a65:266
 813B  EA        NOP                  | kickstart.a65:267
 813C  4C 00 82  JMP   $8200          | kickstart.a65:268
 813F  EA        NOP                  | kickstart.a65:269
 8140  00 00 00 00 00 00 00 00 00 00 00 00 00 00 00 00  |................|
 8150  00 00 00 00 00 00 00 00 00 00 00 00 00 00 00 00  |................|
 8160  00 00 00 00 00 00 00 00 00 00 00 00 00 00 00 00  |................|
 8170  00 00 00 00 00 00 00 00 00 00 00 00 00 00 00 00  |................|
 8180  00 00 00 00 00 00 00 00 00 00 00 00 00 00 00 00  |................|
 8190  00 00 00 00 00 00 00 00 00 00 00 00 00 00 00 00  |................|
 81A0  00 00 00 00 00 00 00 00 00 00 00 00 00 00 00 00  |................|
 81B0  00 00 00 00 00 00 00 00 00 00 00 00 00 00 00 00  |................|
 81C0  00 00 00 00 00 00 00 00 00 00 00 00 00 00 00 00  |................|
 81D0  00 00 00 00 00 00 00 00 00 00 00 00 00 00 00 00  |................|
 81E0  00 00 00 00 00 00 00 00 00 00 00 00 00 00 00 00  |................|
 81F0  00 00 00 00 00 00 00 00 FD 9A DD A5 FD 9A DD A5  |................|
 8200  AD 47 D6  LDA   $D647          | kickstart.a65:310
 8203  29 FE     AND   #$FE         | kickstart.a65:311
 8205  8D 47 D6  STA   $D647          | kickstart.a65:312
 8208  A9 FF     LDA   #$FF         | kickstart.a65:316
 820A  8D 40 D6  STA   $D640          | kickstart.a65:317
 820D  8D 7F D6  STA   $D67F          | kickstart.a65:321
 8210  20 26 99  JSR   $9926          | kickstart.a65:329
 8213  AD 47 D6  LDA   $D647          | kickstart.a65:333
 8216  09 01     ORA   #$01         | kickstart.a65:334
 8218  8D 47 D6  STA   $D647          | kickstart.a65:335
 821B  20 4F A6  JSR   $A64F          | kickstart.a65:337
 821E  00 72 65 74 75 72 6E 5F 66 72 6F 6D 5F 74 72 61  |.return_from_tra|
 822E  70 5F 77 69 74 68 5F 73 75 63 63 65 73 73 00     |p_with_success. |
 823D  8D 7F D6  STA   $D67F          | kickstart.a65:341
 8240  20 26 99  JSR   $9926          | kickstart.a65:347
 8243  8D 40 D6  STA   $D640          | kickstart.a65:351
 8246  AD 47 D6  LDA   $D647          | kickstart.a65:352
 8249  29 FE     AND   #$FE         | kickstart.a65:353
 824B  8D 47 D6  STA   $D647          | kickstart.a65:354
 824E  20 4F A6  JSR   $A64F          | kickstart.a65:356
 8251  00 72 65 74 75 72 6E 5F 66 72 6F 6D 5F 74 72 61  |.return_from_tra|
 8261  70 5F 77 69 74 68 5F 66 61 69 6C 75 72 65 00     |p_with_failure. |
 8270  8D 7F D6  STA   $D67F          | kickstart.a65:360
 8273  4C 00 82  JMP   $8200          | kickstart.a65:366
 8276  78        SEI                  | /home/lgb/prog_here/mega65-core-lgb/src/kickstart_dos.a65:95
 8277  D8        CLD                  | /home/lgb/prog_here/mega65-core-lgb/src/kickstart_dos.a65:100
 8278  29 FE     AND   #$FE         | /home/lgb/prog_here/mega65-core-lgb/src/kickstart_dos.a65:106
 827A  AA        TAX                  | /home/lgb/prog_here/mega65-core-lgb/src/kickstart_dos.a65:107
 827B  7C 7E 82  JMP   ($827E, X)     | /home/lgb/prog_here/mega65-core-lgb/src/kickstart_dos.a65:108
 827E  FE 82 15 83 F6 83 1E 83 E1 85 E1 85 E1 85 E1 85  |................|
 828E  E1 85 FF 83 13 84 94 84 97 84 E1 85 E1 85 E1 85  |................|
 829E  E5 84 27 83 E1 85 E1 85 E1 85 E1 85 E1 85 4A 83  |..'...........J.|
 82AE  46 85 4C 85 40 85 2D 83 52 85 73 82 73 82 73 82  |F.L.@.-.R.s.s.s.|
 82BE  81 85 A3 85 AB 85 73 82 73 82 73 82 73 82 73 82  |......s.s.s.s.s.|
 82CE  E1 85 E1 85 E1 85 E1 85 E1 85 73 82 73 82 73 82  |..........s.s.s.|
 82DE  E1 85 E1 85 E1 85 E1 85 E1 85 E1 85 E1 85 E1 85  |................|
 82EE  73 82 73 82 73 82 73 82 73 82 73 82 73 82 73 82  |s.s.s.s.s.s.s.s.|
 82FE  A9 02     LDA   #$02         | /home/lgb/prog_here/mega65-core-lgb/src/kickstart_dos.a65:210
 8300  8D 41 D6  STA   $D641          | /home/lgb/prog_here/mega65-core-lgb/src/kickstart_dos.a65:211
 8303  A9 01     LDA   #$01         | /home/lgb/prog_here/mega65-core-lgb/src/kickstart_dos.a65:212
 8305  8D 40 D6  STA   $D640          | /home/lgb/prog_here/mega65-core-lgb/src/kickstart_dos.a65:213
 8308  A9 02     LDA   #$02         | /home/lgb/prog_here/mega65-core-lgb/src/kickstart_dos.a65:214
 830A  8D 43 D6  STA   $D643          | /home/lgb/prog_here/mega65-core-lgb/src/kickstart_dos.a65:215
 830D  A9 01     LDA   #$01         | /home/lgb/prog_here/mega65-core-lgb/src/kickstart_dos.a65:216
 830F  8D 42 D6  STA   $D642          | /home/lgb/prog_here/mega65-core-lgb/src/kickstart_dos.a65:217
 8312  4C 10 82  JMP   $8210          | /home/lgb/prog_here/mega65-core-lgb/src/kickstart_dos.a65:218
 8315  AD 02 BC  LDA   $BC02          | /home/lgb/prog_here/mega65-core-lgb/src/kickstart_dos.a65:224
 8318  8D 40 D6  STA   $D640          | /home/lgb/prog_here/mega65-core-lgb/src/kickstart_dos.a65:225
 831B  4C 10 82  JMP   $8210          | /home/lgb/prog_here/mega65-core-lgb/src/kickstart_dos.a65:226
 831E  20 9E 8A  JSR   $8A9E          | /home/lgb/prog_here/mega65-core-lgb/src/kickstart_dos.a65:232
 8321  B3 ED FE  BCS   $8210          | /home/lgb/prog_here/mega65-core-lgb/src/kickstart_dos.a65:236
 8324  93 1A FF  BCC   $8240          | /home/lgb/prog_here/mega65-core-lgb/src/kickstart_dos.a65:237
 8327  20 E4 85  JSR   $85E4          | /home/lgb/prog_here/mega65-core-lgb/src/kickstart_dos.a65:241
 832A  4C 10 82  JMP   $8210          | /home/lgb/prog_here/mega65-core-lgb/src/kickstart_dos.a65:242
 832D  AD 41 D6  LDA   $D641          | /home/lgb/prog_here/mega65-core-lgb/src/kickstart_dos.a65:251
 8330  8D 19 BF  STA   $BF19          | /home/lgb/prog_here/mega65-core-lgb/src/kickstart_dos.a65:252
 8333  AD 42 D6  LDA   $D642          | /home/lgb/prog_here/mega65-core-lgb/src/kickstart_dos.a65:253
 8336  8D 1A BF  STA   $BF1A          | /home/lgb/prog_here/mega65-core-lgb/src/kickstart_dos.a65:254
 8339  AD 43 D6  LDA   $D643          | /home/lgb/prog_here/mega65-core-lgb/src/kickstart_dos.a65:255
 833C  8D 1B BF  STA   $BF1B          | /home/lgb/prog_here/mega65-core-lgb/src/kickstart_dos.a65:256
 833F  A9 00     LDA   #$00         | /home/lgb/prog_here/mega65-core-lgb/src/kickstart_dos.a65:257
 8341  8D 1C BF  STA   $BF1C          | /home/lgb/prog_here/mega65-core-lgb/src/kickstart_dos.a65:258
 8344  20 D8 93  JSR   $93D8          | /home/lgb/prog_here/mega65-core-lgb/src/kickstart_dos.a65:260
 8347  4C 21 83  JMP   $8321          | /home/lgb/prog_here/mega65-core-lgb/src/kickstart_dos.a65:261
 834A  20 4F A6  JSR   $A64F          | /home/lgb/prog_here/mega65-core-lgb/src/kickstart_dos.a65:272
 834D  00 74 72 61 70 5F 64 6F 73 5F 73 65 74 6E 61 6D  |.trap_dos_setnam|
 835D  65 00                                            |e.              |
 835F  20 DF A5  JSR   $A5DF          | /home/lgb/prog_here/mega65-core-lgb/src/kickstart_dos.a65:275
 8362  93 84 00  BCC   $83E8          | /home/lgb/prog_here/mega65-core-lgb/src/kickstart_dos.a65:276
 8365  A0 3F     LDY   #$3F         | /home/lgb/prog_here/mega65-core-lgb/src/kickstart_dos.a65:278
 8367  B1 07     LDA   ($07), Y     | /home/lgb/prog_here/mega65-core-lgb/src/kickstart_dos.a65:279
 8369  99 67 BC  STA   $BC67, Y       | /home/lgb/prog_here/mega65-core-lgb/src/kickstart_dos.a65:280
 836C  88        DEY                  | /home/lgb/prog_here/mega65-core-lgb/src/kickstart_dos.a65:281
 836D  10 F8     BPL   $0067          | /home/lgb/prog_here/mega65-core-lgb/src/kickstart_dos.a65:282
 836F  AD 43 D6  LDA   $D643          | /home/lgb/prog_here/mega65-core-lgb/src/kickstart_dos.a65:286
 8372  C9 3F     CMP   #$3F         | /home/lgb/prog_here/mega65-core-lgb/src/kickstart_dos.a65:287
 8374  90 08     BCC   $007E          | /home/lgb/prog_here/mega65-core-lgb/src/kickstart_dos.a65:288
 8376  A9 81     LDA   #$81         | /home/lgb/prog_here/mega65-core-lgb/src/kickstart_dos.a65:289
 8378  8D F6 BC  STA   $BCF6          | /home/lgb/prog_here/mega65-core-lgb/src/kickstart_dos.a65:290
 837B  4C 40 82  JMP   $8240          | /home/lgb/prog_here/mega65-core-lgb/src/kickstart_dos.a65:291
 837E  9C 66 BC  STZ   $BC66          | /home/lgb/prog_here/mega65-core-lgb/src/kickstart_dos.a65:296
 8381  20 3E 8B  JSR   $8B3E          | /home/lgb/prog_here/mega65-core-lgb/src/kickstart_dos.a65:300
 8384  A9 20     LDA   #$20         | /home/lgb/prog_here/mega65-core-lgb/src/kickstart_dos.a65:305
 8386  A0 27     LDY   #$27         | /home/lgb/prog_here/mega65-core-lgb/src/kickstart_dos.a65:306
 8388  99 BC 83  STA   $83BC, Y       | /home/lgb/prog_here/mega65-core-lgb/src/kickstart_dos.a65:308
 838B  88        DEY                  | /home/lgb/prog_here/mega65-core-lgb/src/kickstart_dos.a65:309
 838C  C0 0B     CPY   #$0B         | /home/lgb/prog_here/mega65-core-lgb/src/kickstart_dos.a65:310
 838E  D0 F8     BNE   $0088          | /home/lgb/prog_here/mega65-core-lgb/src/kickstart_dos.a65:311
 8390  6B        TZA                  | /home/lgb/prog_here/mega65-core-lgb/src/kickstart_dos.a65:316
 8391  AA        TAX                  | /home/lgb/prog_here/mega65-core-lgb/src/kickstart_dos.a65:318
 8392  20 3A A7  JSR   $A73A          | /home/lgb/prog_here/mega65-core-lgb/src/kickstart_dos.a65:319
 8395  8C C5 83  STY   $83C5          | /home/lgb/prog_here/mega65-core-lgb/src/kickstart_dos.a65:320
 8398  8E C6 83  STX   $83C6          | /home/lgb/prog_here/mega65-core-lgb/src/kickstart_dos.a65:321
 839B  C2 18     CPZ   #$18         | /home/lgb/prog_here/mega65-core-lgb/src/kickstart_dos.a65:325
 839D  90 02     BCC   $00A1          | /home/lgb/prog_here/mega65-core-lgb/src/kickstart_dos.a65:326
 839F  A3 18     LDZ   #$18         | /home/lgb/prog_here/mega65-core-lgb/src/kickstart_dos.a65:327
 83A1  6B        TZA                  | /home/lgb/prog_here/mega65-core-lgb/src/kickstart_dos.a65:330
 83A2  A8        TAY                  | /home/lgb/prog_here/mega65-core-lgb/src/kickstart_dos.a65:331
 83A3  88        DEY                  | /home/lgb/prog_here/mega65-core-lgb/src/kickstart_dos.a65:332
 83A4  B9 67 BC  LDA   $BC67, Y       | /home/lgb/prog_here/mega65-core-lgb/src/kickstart_dos.a65:334
 83A7  D0 02     BNE   $00AB          | /home/lgb/prog_here/mega65-core-lgb/src/kickstart_dos.a65:335
 83A9  A9 3F     LDA   #$3F         | /home/lgb/prog_here/mega65-core-lgb/src/kickstart_dos.a65:337
 83AB  99 C8 83  STA   $83C8, Y       | /home/lgb/prog_here/mega65-core-lgb/src/kickstart_dos.a65:339
 83AE  88        DEY                  | /home/lgb/prog_here/mega65-core-lgb/src/kickstart_dos.a65:340
 83AF  10 F3     BPL   $00A4          | /home/lgb/prog_here/mega65-core-lgb/src/kickstart_dos.a65:341
 83B1  6B        TZA                  | /home/lgb/prog_here/mega65-core-lgb/src/kickstart_dos.a65:343
 83B2  A8        TAY                  | /home/lgb/prog_here/mega65-core-lgb/src/kickstart_dos.a65:344
 83B3  A9 29     LDA   #$29         | /home/lgb/prog_here/mega65-core-lgb/src/kickstart_dos.a65:345
 83B5  99 C8 83  STA   $83C8, Y       | /home/lgb/prog_here/mega65-core-lgb/src/kickstart_dos.a65:346
 83B8  20 4F A6  JSR   $A64F          | /home/lgb/prog_here/mega65-core-lgb/src/kickstart_dos.a65:348
 83BB  00 73 65 74 6E 61 6D 65 28 24 25 25 2C 20 20 20  |.setname($%%,   |
 83CB  20 20 20 20 20 20 20 20 20 20 20 20 20 20 20 20  |                |
 83DB  20 20 20 20 20 20 20 20 20 00                    |         .      |
 83E5  4C 10 82  JMP   $8210          | /home/lgb/prog_here/mega65-core-lgb/src/kickstart_dos.a65:358
 83E8  AD F6 BC  LDA   $BCF6          | /home/lgb/prog_here/mega65-core-lgb/src/kickstart_dos.a65:364
 83EB  4C 40 82  JMP   $8240          | /home/lgb/prog_here/mega65-core-lgb/src/kickstart_dos.a65:365
 83EE  A9 11     LDA   #$11         | /home/lgb/prog_here/mega65-core-lgb/src/kickstart_dos.a65:384
 83F0  8D F6 BC  STA   $BCF6          | /home/lgb/prog_here/mega65-core-lgb/src/kickstart_dos.a65:385
 83F3  4C 40 82  JMP   $8240          | /home/lgb/prog_here/mega65-core-lgb/src/kickstart_dos.a65:386
 83F6  AD 03 BC  LDA   $BC03          | /home/lgb/prog_here/mega65-core-lgb/src/kickstart_dos.a65:392
 83F9  8D 40 D6  STA   $D640          | /home/lgb/prog_here/mega65-core-lgb/src/kickstart_dos.a65:393
 83FC  4C 10 82  JMP   $8210          | /home/lgb/prog_here/mega65-core-lgb/src/kickstart_dos.a65:394
 83FF  20 10 8C  JSR   $8C10          | /home/lgb/prog_here/mega65-core-lgb/src/kickstart_dos.a65:402
 8402  B0 06     BCS   $000A          | /home/lgb/prog_here/mega65-core-lgb/src/kickstart_dos.a65:403
 8404  AD F6 BC  LDA   $BCF6          | /home/lgb/prog_here/mega65-core-lgb/src/kickstart_dos.a65:408
 8407  4C 40 82  JMP   $8240          | /home/lgb/prog_here/mega65-core-lgb/src/kickstart_dos.a65:409
 840A  AD F4 BC  LDA   $BCF4          | /home/lgb/prog_here/mega65-core-lgb/src/kickstart_dos.a65:414
 840D  8D 40 D6  STA   $D640          | /home/lgb/prog_here/mega65-core-lgb/src/kickstart_dos.a65:415
 8410  4C 10 82  JMP   $8210          | /home/lgb/prog_here/mega65-core-lgb/src/kickstart_dos.a65:416
 8413  20 4F A6  JSR   $A64F          | /home/lgb/prog_here/mega65-core-lgb/src/kickstart_dos.a65:426
 8416  00 74 72 61 70 5F 64 6F 73 5F 72 65 61 64 64 69  |.trap_dos_readdi|
 8426  72 00                                            |r.              |
 8428  20 1F 99  JSR   $991F          | /home/lgb/prog_here/mega65-core-lgb/src/kickstart_dos.a65:429
 842B  AE 41 D6  LDX   $D641          | /home/lgb/prog_here/mega65-core-lgb/src/kickstart_dos.a65:435
 842E  8E F4 BC  STX   $BCF4          | /home/lgb/prog_here/mega65-core-lgb/src/kickstart_dos.a65:436
 8431  20 F0 91  JSR   $91F0          | /home/lgb/prog_here/mega65-core-lgb/src/kickstart_dos.a65:438
 8434  90 39     BCC   $006F          | /home/lgb/prog_here/mega65-core-lgb/src/kickstart_dos.a65:439
 8436  8D F5 BC  STA   $BCF5          | /home/lgb/prog_here/mega65-core-lgb/src/kickstart_dos.a65:440
 8439  20 42 8C  JSR   $8C42          | /home/lgb/prog_here/mega65-core-lgb/src/kickstart_dos.a65:442
 843C  90 31     BCC   $006F          | /home/lgb/prog_here/mega65-core-lgb/src/kickstart_dos.a65:443
 843E  20 DF A5  JSR   $A5DF          | /home/lgb/prog_here/mega65-core-lgb/src/kickstart_dos.a65:447
 8441  90 2C     BCC   $006F          | /home/lgb/prog_here/mega65-core-lgb/src/kickstart_dos.a65:448
 8443  A0 54     LDY   #$54         | /home/lgb/prog_here/mega65-core-lgb/src/kickstart_dos.a65:452
 8445  B9 0F BC  LDA   $BC0F, Y       | /home/lgb/prog_here/mega65-core-lgb/src/kickstart_dos.a65:454
 8448  91 07     STA   ($07), Y     | /home/lgb/prog_here/mega65-core-lgb/src/kickstart_dos.a65:455
 844A  88        DEY                  | /home/lgb/prog_here/mega65-core-lgb/src/kickstart_dos.a65:456
 844B  10 F8     BPL   $0045          | /home/lgb/prog_here/mega65-core-lgb/src/kickstart_dos.a65:457
 844D  20 4F A6  JSR   $A64F          | /home/lgb/prog_here/mega65-core-lgb/src/kickstart_dos.a65:459
 8450  00 74 72 61 70 5F 64 6F 73 5F 72 65 61 64 64 69  |.trap_dos_readdi|
 8460  72 20 3C 73 75 63 63 65 73 73 3E 00              |r <success>.    |
 846C  4C 10 82  JMP   $8210          | /home/lgb/prog_here/mega65-core-lgb/src/kickstart_dos.a65:462
 846F  20 4F A6  JSR   $A64F          | /home/lgb/prog_here/mega65-core-lgb/src/kickstart_dos.a65:467
 8472  00 74 72 61 70 5F 64 6F 73 5F 72 65 61 64 64 69  |.trap_dos_readdi|
 8482  72 20 3C 66 61 69 6C 75 72 65 3E 00              |r <failure>.    |
 848E  AD F6 BC  LDA   $BCF6          | /home/lgb/prog_here/mega65-core-lgb/src/kickstart_dos.a65:470
 8491  4C 40 82  JMP   $8240          | /home/lgb/prog_here/mega65-core-lgb/src/kickstart_dos.a65:471
 8494  4C E5 84  JMP   $84E5          | /home/lgb/prog_here/mega65-core-lgb/src/kickstart_dos.a65:476
 8497  20 CB 8B  JSR   $8BCB          | /home/lgb/prog_here/mega65-core-lgb/src/kickstart_dos.a65:486
 849A  90 23     BCC   $00BF          | /home/lgb/prog_here/mega65-core-lgb/src/kickstart_dos.a65:487
 849C  20 4F A6  JSR   $A64F          | /home/lgb/prog_here/mega65-core-lgb/src/kickstart_dos.a65:489
 849F  00 74 72 61 70 5F 64 6F 73 5F 6F 70 65 6E 66 69  |.trap_dos_openfi|
 84AF  6C 65 20 3C 73 75 63 63 65 73 73 3E 00           |le <success>.   |
 84BC  4C 10 82  JMP   $8210          | /home/lgb/prog_here/mega65-core-lgb/src/kickstart_dos.a65:492
 84BF  20 4F A6  JSR   $A64F          | /home/lgb/prog_here/mega65-core-lgb/src/kickstart_dos.a65:495
 84C2  00 74 72 61 70 5F 64 6F 73 5F 6F 70 65 6E 66 69  |.trap_dos_openfi|
 84D2  6C 65 20 3C 66 61 69 6C 75 72 65 3E 00           |le <failure>.   |
 84DF  AD F6 BC  LDA   $BCF6          | /home/lgb/prog_here/mega65-core-lgb/src/kickstart_dos.a65:498
 84E2  4C 40 82  JMP   $8240          | /home/lgb/prog_here/mega65-core-lgb/src/kickstart_dos.a65:499
 84E5  AE 41 D6  LDX   $D641          | /home/lgb/prog_here/mega65-core-lgb/src/kickstart_dos.a65:505
 84E8  8E F4 BC  STX   $BCF4          | /home/lgb/prog_here/mega65-core-lgb/src/kickstart_dos.a65:506
 84EB  20 F0 91  JSR   $91F0          | /home/lgb/prog_here/mega65-core-lgb/src/kickstart_dos.a65:508
 84EE  90 29     BCC   $0019          | /home/lgb/prog_here/mega65-core-lgb/src/kickstart_dos.a65:509
 84F0  20 B7 8B  JSR   $8BB7          | /home/lgb/prog_here/mega65-core-lgb/src/kickstart_dos.a65:510
 84F3  90 24     BCC   $0019          | /home/lgb/prog_here/mega65-core-lgb/src/kickstart_dos.a65:511
 84F5  20 4F A6  JSR   $A64F          | /home/lgb/prog_here/mega65-core-lgb/src/kickstart_dos.a65:513
 84F8  00 74 72 61 70 5F 64 6F 73 5F 63 6C 6F 73 65 66  |.trap_dos_closef|
 8508  69 6C 65 20 3C 73 75 63 63 65 73 73 3E 00        |ile <success>.  |
 8516  4C 10 82  JMP   $8210          | /home/lgb/prog_here/mega65-core-lgb/src/kickstart_dos.a65:516
 8519  20 4F A6  JSR   $A64F          | /home/lgb/prog_here/mega65-core-lgb/src/kickstart_dos.a65:518
 851C  00 74 72 61 70 5F 64 6F 73 5F 63 6C 6F 73 65 66  |.trap_dos_closef|
 852C  69 6C 65 20 3C 66 61 69 6C 75 72 65 3E 00        |ile <failure>.  |
 853A  AD F6 BC  LDA   $BCF6          | /home/lgb/prog_here/mega65-core-lgb/src/kickstart_dos.a65:521
 853D  4C 40 82  JMP   $8240          | /home/lgb/prog_here/mega65-core-lgb/src/kickstart_dos.a65:522
 8540  20 E0 8B  JSR   $8BE0          | /home/lgb/prog_here/mega65-core-lgb/src/kickstart_dos.a65:528
 8543  4C 21 83  JMP   $8321          | /home/lgb/prog_here/mega65-core-lgb/src/kickstart_dos.a65:529
 8546  20 ED 8B  JSR   $8BED          | /home/lgb/prog_here/mega65-core-lgb/src/kickstart_dos.a65:535
 8549  4C 21 83  JMP   $8321          | /home/lgb/prog_here/mega65-core-lgb/src/kickstart_dos.a65:536
 854C  20 FC 8B  JSR   $8BFC          | /home/lgb/prog_here/mega65-core-lgb/src/kickstart_dos.a65:542
 854F  4C 21 83  JMP   $8321          | /home/lgb/prog_here/mega65-core-lgb/src/kickstart_dos.a65:543
 8552  AD F6 BC  LDA   $BCF6          | /home/lgb/prog_here/mega65-core-lgb/src/kickstart_dos.a65:549
 8555  8D 40 D6  STA   $D640          | /home/lgb/prog_here/mega65-core-lgb/src/kickstart_dos.a65:550
 8558  AA        TAX                  | /home/lgb/prog_here/mega65-core-lgb/src/kickstart_dos.a65:552
 8559  20 3A A7  JSR   $A73A          | /home/lgb/prog_here/mega65-core-lgb/src/kickstart_dos.a65:553
 855C  8C 7A 85  STY   $857A          | /home/lgb/prog_here/mega65-core-lgb/src/kickstart_dos.a65:554
 855F  8E 7B 85  STX   $857B          | /home/lgb/prog_here/mega65-core-lgb/src/kickstart_dos.a65:555
 8562  20 4F A6  JSR   $A64F          | /home/lgb/prog_here/mega65-core-lgb/src/kickstart_dos.a65:557
 8565  00 64 6F 73 5F 67 65 74 65 72 72 6F 72 63 6F 64  |.dos_geterrorcod|
 8575  65 20 3C 3D 24 25 25 3E 00                       |e <=$%%>.       |
 857E  4C 10 82  JMP   $8210          | /home/lgb/prog_here/mega65-core-lgb/src/kickstart_dos.a65:561
 8581  20 4F A6  JSR   $A64F          | /home/lgb/prog_here/mega65-core-lgb/src/kickstart_dos.a65:567
 8584  00 74 72 61 70 5F 64 6F 73 5F 64 38 31 61 74 74  |.trap_dos_d81att|
 8594  61 63 68 00                                      |ach.            |
 8598  A9 00     LDA   #$00         | /home/lgb/prog_here/mega65-core-lgb/src/kickstart_dos.a65:570
 859A  8D 8B D6  STA   $D68B          | /home/lgb/prog_here/mega65-core-lgb/src/kickstart_dos.a65:571
 859D  20 55 94  JSR   $9455          | /home/lgb/prog_here/mega65-core-lgb/src/kickstart_dos.a65:572
 85A0  4C 21 83  JMP   $8321          | /home/lgb/prog_here/mega65-core-lgb/src/kickstart_dos.a65:573
 85A3  A9 00     LDA   #$00         | /home/lgb/prog_here/mega65-core-lgb/src/kickstart_dos.a65:579
 85A5  8D 8B D6  STA   $D68B          | /home/lgb/prog_here/mega65-core-lgb/src/kickstart_dos.a65:580
 85A8  4C 10 82  JMP   $8210          | /home/lgb/prog_here/mega65-core-lgb/src/kickstart_dos.a65:581
 85AB  AD 8B D6  LDA   $D68B          | /home/lgb/prog_here/mega65-core-lgb/src/kickstart_dos.a65:587
 85AE  29 03     AND   #$03         | /home/lgb/prog_here/mega65-core-lgb/src/kickstart_dos.a65:588
 85B0  C9 03     CMP   #$03         | /home/lgb/prog_here/mega65-core-lgb/src/kickstart_dos.a65:589
 85B2  D0 08     BNE   $00BC          | /home/lgb/prog_here/mega65-core-lgb/src/kickstart_dos.a65:590
 85B4  09 04     ORA   #$04         | /home/lgb/prog_here/mega65-core-lgb/src/kickstart_dos.a65:591
 85B6  8D 8B D6  STA   $D68B          | /home/lgb/prog_here/mega65-core-lgb/src/kickstart_dos.a65:592
 85B9  4C 10 82  JMP   $8210          | /home/lgb/prog_here/mega65-core-lgb/src/kickstart_dos.a65:593
 85BC  20 4F A6  JSR   $A64F          | /home/lgb/prog_here/mega65-core-lgb/src/kickstart_dos.a65:599
 85BF  00 74 72 61 70 5F 64 6F 73 5F 64 38 31 77 72 69  |.trap_dos_d81wri|
 85CF  74 65 65 6E 2D 46 41 49 4C 00                    |teen-FAIL.      |
 85D9  A9 80     LDA   #$80         | /home/lgb/prog_here/mega65-core-lgb/src/kickstart_dos.a65:602
 85DB  8D F6 BC  STA   $BCF6          | /home/lgb/prog_here/mega65-core-lgb/src/kickstart_dos.a65:603
 85DE  4C 40 82  JMP   $8240          | /home/lgb/prog_here/mega65-core-lgb/src/kickstart_dos.a65:604
 85E1  4C 73 82  JMP   $8273          | /home/lgb/prog_here/mega65-core-lgb/src/kickstart_dos.a65:637
 85E4  A9 FF     LDA   #$FF         | /home/lgb/prog_here/mega65-core-lgb/src/kickstart_dos.a65:654
 85E6  8D 80 BD  STA   $BD80          | /home/lgb/prog_here/mega65-core-lgb/src/kickstart_dos.a65:655
 85E9  8D A0 BD  STA   $BDA0          | /home/lgb/prog_here/mega65-core-lgb/src/kickstart_dos.a65:656
 85EC  8D C0 BD  STA   $BDC0          | /home/lgb/prog_here/mega65-core-lgb/src/kickstart_dos.a65:657
 85EF  8D E0 BD  STA   $BDE0          | /home/lgb/prog_here/mega65-core-lgb/src/kickstart_dos.a65:658
 85F2  38        SEC                  | /home/lgb/prog_here/mega65-core-lgb/src/kickstart_dos.a65:659
 85F3  60        RTS                  | /home/lgb/prog_here/mega65-core-lgb/src/kickstart_dos.a65:660
 85F4  A9 00     LDA   #$00         | /home/lgb/prog_here/mega65-core-lgb/src/kickstart_dos.a65:678
 85F6  8D F6 BC  STA   $BCF6          | /home/lgb/prog_here/mega65-core-lgb/src/kickstart_dos.a65:679
 85F9  20 45 87  JSR   $8745          | /home/lgb/prog_here/mega65-core-lgb/src/kickstart_dos.a65:683
 85FC  20 13 87  JSR   $8713          | /home/lgb/prog_here/mega65-core-lgb/src/kickstart_dos.a65:685
 85FF  93 5E 02  BCC   $885F          | /home/lgb/prog_here/mega65-core-lgb/src/kickstart_dos.a65:686
 8602  20 1F 99  JSR   $991F          | /home/lgb/prog_here/mega65-core-lgb/src/kickstart_dos.a65:690
 8605  A9 02     LDA   #$02         | /home/lgb/prog_here/mega65-core-lgb/src/kickstart_dos.a65:692
 8607  8D F6 BC  STA   $BCF6          | /home/lgb/prog_here/mega65-core-lgb/src/kickstart_dos.a65:693
 860A  AD FE DF  LDA   $DFFE          | /home/lgb/prog_here/mega65-core-lgb/src/kickstart_dos.a65:697
 860D  C9 55     CMP   #$55         | /home/lgb/prog_here/mega65-core-lgb/src/kickstart_dos.a65:698
 860F  D3 4E 02  BNE   $885F          | /home/lgb/prog_here/mega65-core-lgb/src/kickstart_dos.a65:699
 8612  AD FF DF  LDA   $DFFF          | /home/lgb/prog_here/mega65-core-lgb/src/kickstart_dos.a65:700
 8615  C9 AA     CMP   #$AA         | /home/lgb/prog_here/mega65-core-lgb/src/kickstart_dos.a65:701
 8617  D3 46 02  BNE   $885F          | /home/lgb/prog_here/mega65-core-lgb/src/kickstart_dos.a65:702
 861A  20 4F A6  JSR   $A64F          | /home/lgb/prog_here/mega65-core-lgb/src/kickstart_dos.a65:706
 861D  00 46 6F 75 6E 64 20 24 35 35 41 41 20 61 74 20  |.Found $55AA at |
 862D  24 31 46 45 20 6F 6E 20 4D 42 52 00              |$1FE on MBR.    |
 8639  A9 BE     LDA   #$BE         | /home/lgb/prog_here/mega65-core-lgb/src/kickstart_dos.a65:717
 863B  8D 01 BF  STA   $BF01          | /home/lgb/prog_here/mega65-core-lgb/src/kickstart_dos.a65:718
 863E  A9 DF     LDA   #$DF         | /home/lgb/prog_here/mega65-core-lgb/src/kickstart_dos.a65:719
 8640  8D 02 BF  STA   $BF02          | /home/lgb/prog_here/mega65-core-lgb/src/kickstart_dos.a65:720
 8643  20 4F A6  JSR   $A64F          | /home/lgb/prog_here/mega65-core-lgb/src/kickstart_dos.a65:721
 8646  00 3D 3D 3D 20 43 68 65 63 6B 69 6E 67 20 50 61  |.=== Checking Pa|
 8656  72 74 69 74 69 6F 6E 20 23 31 20 61 74 20 24 30  |rtition #1 at $0|
 8666  31 42 45 00                                      |1BE.            |
 866A  20 4B 87  JSR   $874B          | /home/lgb/prog_here/mega65-core-lgb/src/kickstart_dos.a65:723
 866D  20 13 87  JSR   $8713          | /home/lgb/prog_here/mega65-core-lgb/src/kickstart_dos.a65:725
 8670  93 ED 01  BCC   $885F          | /home/lgb/prog_here/mega65-core-lgb/src/kickstart_dos.a65:726
 8673  A9 CE     LDA   #$CE         | /home/lgb/prog_here/mega65-core-lgb/src/kickstart_dos.a65:727
 8675  8D 01 BF  STA   $BF01          | /home/lgb/prog_here/mega65-core-lgb/src/kickstart_dos.a65:728
 8678  20 4F A6  JSR   $A64F          | /home/lgb/prog_here/mega65-core-lgb/src/kickstart_dos.a65:729
 867B  00 3D 3D 3D 20 43 68 65 63 6B 69 6E 67 20 50 61  |.=== Checking Pa|
 868B  72 74 69 74 69 6F 6E 20 23 32 20 61 74 20 24 30  |rtition #2 at $0|
 869B  31 43 45 00                                      |1CE.            |
 869F  20 4B 87  JSR   $874B          | /home/lgb/prog_here/mega65-core-lgb/src/kickstart_dos.a65:731
 86A2  20 13 87  JSR   $8713          | /home/lgb/prog_here/mega65-core-lgb/src/kickstart_dos.a65:733
 86A5  93 B8 01  BCC   $885F          | /home/lgb/prog_here/mega65-core-lgb/src/kickstart_dos.a65:734
 86A8  A9 DE     LDA   #$DE         | /home/lgb/prog_here/mega65-core-lgb/src/kickstart_dos.a65:735
 86AA  8D 01 BF  STA   $BF01          | /home/lgb/prog_here/mega65-core-lgb/src/kickstart_dos.a65:736
 86AD  20 4F A6  JSR   $A64F          | /home/lgb/prog_here/mega65-core-lgb/src/kickstart_dos.a65:737
 86B0  00 3D 3D 3D 20 43 68 65 63 6B 69 6E 67 20 50 61  |.=== Checking Pa|
 86C0  72 74 69 74 69 6F 6E 20 23 33 20 61 74 20 24 30  |rtition #3 at $0|
 86D0  31 44 45 00                                      |1DE.            |
 86D4  20 4B 87  JSR   $874B          | /home/lgb/prog_here/mega65-core-lgb/src/kickstart_dos.a65:739
 86D7  20 13 87  JSR   $8713          | /home/lgb/prog_here/mega65-core-lgb/src/kickstart_dos.a65:741
 86DA  93 83 01  BCC   $885F          | /home/lgb/prog_here/mega65-core-lgb/src/kickstart_dos.a65:742
 86DD  A9 EE     LDA   #$EE         | /home/lgb/prog_here/mega65-core-lgb/src/kickstart_dos.a65:743
 86DF  8D 01 BF  STA   $BF01          | /home/lgb/prog_here/mega65-core-lgb/src/kickstart_dos.a65:744
 86E2  20 4F A6  JSR   $A64F          | /home/lgb/prog_here/mega65-core-lgb/src/kickstart_dos.a65:745
 86E5  00 3D 3D 3D 20 43 68 65 63 6B 69 6E 67 20 50 61  |.=== Checking Pa|
 86F5  72 74 69 74 69 6F 6E 20 23 34 20 61 74 20 24 30  |rtition #4 at $0|
 8705  31 45 45 00                                      |1EE.            |
 8709  20 4B 87  JSR   $874B          | /home/lgb/prog_here/mega65-core-lgb/src/kickstart_dos.a65:747
 870C  A9 00     LDA   #$00         | /home/lgb/prog_here/mega65-core-lgb/src/kickstart_dos.a65:749
 870E  8D F6 BC  STA   $BCF6          | /home/lgb/prog_here/mega65-core-lgb/src/kickstart_dos.a65:750
 8711  38        SEC                  | /home/lgb/prog_here/mega65-core-lgb/src/kickstart_dos.a65:751
 8712  60        RTS                  | /home/lgb/prog_here/mega65-core-lgb/src/kickstart_dos.a65:752
 8713  A9 00     LDA   #$00         | /home/lgb/prog_here/mega65-core-lgb/src/kickstart_dos.a65:761
 8715  8D 81 D6  STA   $D681          | /home/lgb/prog_here/mega65-core-lgb/src/kickstart_dos.a65:762
 8718  8D 82 D6  STA   $D682          | /home/lgb/prog_here/mega65-core-lgb/src/kickstart_dos.a65:763
 871B  8D 83 D6  STA   $D683          | /home/lgb/prog_here/mega65-core-lgb/src/kickstart_dos.a65:764
 871E  8D 84 D6  STA   $D684          | /home/lgb/prog_here/mega65-core-lgb/src/kickstart_dos.a65:765
 8721  20 4F A6  JSR   $A64F          | /home/lgb/prog_here/mega65-core-lgb/src/kickstart_dos.a65:767
 8724  00 52 65 61 64 69 6E 67 20 4D 42 52 20 40 20 30  |.Reading MBR @ 0|
 8734  78 30 30 30 30 30 30 30 30 00                    |x00000000.      |
 873E  20 2F 99  JSR   $992F          | /home/lgb/prog_here/mega65-core-lgb/src/kickstart_dos.a65:772
 8741  93 1C 01  BCC   $885F          | /home/lgb/prog_here/mega65-core-lgb/src/kickstart_dos.a65:773
 8744  60        RTS                  | /home/lgb/prog_here/mega65-core-lgb/src/kickstart_dos.a65:774
 8745  A9 00     LDA   #$00         | /home/lgb/prog_here/mega65-core-lgb/src/kickstart_dos.a65:780
 8747  8D 01 BC  STA   $BC01          | /home/lgb/prog_here/mega65-core-lgb/src/kickstart_dos.a65:781
 874A  60        RTS                  | /home/lgb/prog_here/mega65-core-lgb/src/kickstart_dos.a65:782
 874B  A9 00     LDA   #$00         | /home/lgb/prog_here/mega65-core-lgb/src/kickstart_dos.a65:788
 874D  8D F6 BC  STA   $BCF6          | /home/lgb/prog_here/mega65-core-lgb/src/kickstart_dos.a65:789
 8750  A0 04     LDY   #$04         | /home/lgb/prog_here/mega65-core-lgb/src/kickstart_dos.a65:795
 8752  B1 01     LDA   ($01), Y     | /home/lgb/prog_here/mega65-core-lgb/src/kickstart_dos.a65:799
 8754  C9 0C     CMP   #$0C         | /home/lgb/prog_here/mega65-core-lgb/src/kickstart_dos.a65:806
 8756  F0 0C     BEQ   $0064          | /home/lgb/prog_here/mega65-core-lgb/src/kickstart_dos.a65:807
 8758  C9 0B     CMP   #$0B         | /home/lgb/prog_here/mega65-core-lgb/src/kickstart_dos.a65:809
 875A  F0 2F     BEQ   $008B          | /home/lgb/prog_here/mega65-core-lgb/src/kickstart_dos.a65:810
 875C  A9 01     LDA   #$01         | /home/lgb/prog_here/mega65-core-lgb/src/kickstart_dos.a65:812
 875E  8D F6 BC  STA   $BCF6          | /home/lgb/prog_here/mega65-core-lgb/src/kickstart_dos.a65:813
 8761  4C 3F 88  JMP   $883F          | /home/lgb/prog_here/mega65-core-lgb/src/kickstart_dos.a65:814
 8764  20 4F A6  JSR   $A64F          | /home/lgb/prog_here/mega65-core-lgb/src/kickstart_dos.a65:820
 8767  00 50 61 72 74 6E 20 68 61 73 20 66 61 74 33 32  |.Partn has fat32|
 8777  5F 6C 62 61 20 28 74 79 70 65 3D 30 78 30 63 29  |_lba (type=0x0c)|
 8787  00                                               |.               |
 8788  4C B7 87  JMP   $87B7          | /home/lgb/prog_here/mega65-core-lgb/src/kickstart_dos.a65:823
 878B  20 4F A6  JSR   $A64F          | /home/lgb/prog_here/mega65-core-lgb/src/kickstart_dos.a65:827
 878E  00 57 41 52 4E 3A 50 61 72 74 6E 20 68 61 73 20  |.WARN:Partn has |
 879E  66 61 74 33 32 5F 63 68 73 20 28 74 79 70 65 3D  |fat32_chs (type=|
 87AE  30 78 30 62 29 00                                |0x0b).          |
 87B4  4C B7 87  JMP   $87B7          | /home/lgb/prog_here/mega65-core-lgb/src/kickstart_dos.a65:830
 87B7  AD 01 BC  LDA   $BC01          | /home/lgb/prog_here/mega65-core-lgb/src/kickstart_dos.a65:843
 87BA  0A        ASL                  | /home/lgb/prog_here/mega65-core-lgb/src/kickstart_dos.a65:844
 87BB  0A        ASL                  | /home/lgb/prog_here/mega65-core-lgb/src/kickstart_dos.a65:845
 87BC  0A        ASL                  | /home/lgb/prog_here/mega65-core-lgb/src/kickstart_dos.a65:846
 87BD  0A        ASL                  | /home/lgb/prog_here/mega65-core-lgb/src/kickstart_dos.a65:847
 87BE  0A        ASL                  | /home/lgb/prog_here/mega65-core-lgb/src/kickstart_dos.a65:848
 87BF  AA        TAX                  | /home/lgb/prog_here/mega65-core-lgb/src/kickstart_dos.a65:849
 87C0  A0 08     LDY   #$08         | /home/lgb/prog_here/mega65-core-lgb/src/kickstart_dos.a65:856
 87C2  B1 01     LDA   ($01), Y     | /home/lgb/prog_here/mega65-core-lgb/src/kickstart_dos.a65:858
 87C4  9D 00 BB  STA   $BB00, X       | /home/lgb/prog_here/mega65-core-lgb/src/kickstart_dos.a65:859
 87C7  E8        INX                  | /home/lgb/prog_here/mega65-core-lgb/src/kickstart_dos.a65:860
 87C8  C8        INY                  | /home/lgb/prog_here/mega65-core-lgb/src/kickstart_dos.a65:861
 87C9  C0 10     CPY   #$10         | /home/lgb/prog_here/mega65-core-lgb/src/kickstart_dos.a65:862
 87CB  D0 F5     BNE   $00C2          | /home/lgb/prog_here/mega65-core-lgb/src/kickstart_dos.a65:863
 87CD  20 83 88  JSR   $8883          | /home/lgb/prog_here/mega65-core-lgb/src/kickstart_dos.a65:869
 87D0  93 8D 00  BCC   $885F          | /home/lgb/prog_here/mega65-core-lgb/src/kickstart_dos.a65:870
 87D3  20 CF B0  JSR   $B0CF          | /home/lgb/prog_here/mega65-core-lgb/src/kickstart_dos.a65:872
 87D6  AD 01 BC  LDA   $BC01          | /home/lgb/prog_here/mega65-core-lgb/src/kickstart_dos.a65:879
 87D9  F0 06     BEQ   $00E1          | /home/lgb/prog_here/mega65-core-lgb/src/kickstart_dos.a65:880
 87DB  A0 00     LDY   #$00         | /home/lgb/prog_here/mega65-core-lgb/src/kickstart_dos.a65:881
 87DD  B1 01     LDA   ($01), Y     | /home/lgb/prog_here/mega65-core-lgb/src/kickstart_dos.a65:882
 87DF  10 2C     BPL   $000D          | /home/lgb/prog_here/mega65-core-lgb/src/kickstart_dos.a65:883
 87E1  AD 01 BC  LDA   $BC01          | /home/lgb/prog_here/mega65-core-lgb/src/kickstart_dos.a65:887
 87E4  8D 02 BC  STA   $BC02          | /home/lgb/prog_here/mega65-core-lgb/src/kickstart_dos.a65:888
 87E7  AA        TAX                  | /home/lgb/prog_here/mega65-core-lgb/src/kickstart_dos.a65:893
 87E8  20 3A A7  JSR   $A73A          | /home/lgb/prog_here/mega65-core-lgb/src/kickstart_dos.a65:894
 87EB  8C 08 88  STY   $8808          | /home/lgb/prog_here/mega65-core-lgb/src/kickstart_dos.a65:895
 87EE  8E 09 88  STX   $8809          | /home/lgb/prog_here/mega65-core-lgb/src/kickstart_dos.a65:896
 87F1  20 4F A6  JSR   $A64F          | /home/lgb/prog_here/mega65-core-lgb/src/kickstart_dos.a65:898
 87F4  00 64 6F 73 5F 64 65 66 61 75 6C 74 5F 64 69 73  |.dos_default_dis|
 8804  6B 20 3D 20 78 78 00                             |k = xx.         |
 880B  38        SEC                  | /home/lgb/prog_here/mega65-core-lgb/src/kickstart_dos.a65:907
 880C  60        RTS                  | /home/lgb/prog_here/mega65-core-lgb/src/kickstart_dos.a65:908
 880D  AE 01 BC  LDX   $BC01          | /home/lgb/prog_here/mega65-core-lgb/src/kickstart_dos.a65:914
 8810  20 3A A7  JSR   $A73A          | /home/lgb/prog_here/mega65-core-lgb/src/kickstart_dos.a65:920
 8813  8E 1F 88  STX   $881F          | /home/lgb/prog_here/mega65-core-lgb/src/kickstart_dos.a65:921
 8816  20 4F A6  JSR   $A64F          | /home/lgb/prog_here/mega65-core-lgb/src/kickstart_dos.a65:923
 8819  00 50 61 72 74 23 78 20 4E 4F 54 20 73 65 74 20  |.Part#x NOT set |
 8829  74 6F 20 74 68 65 20 64 65 66 61 75 6C 74 5F 64  |to the default_d|
 8839  69 73 6B 00                                      |isk.            |
 883D  38        SEC                  | /home/lgb/prog_here/mega65-core-lgb/src/kickstart_dos.a65:933
 883E  60        RTS                  | /home/lgb/prog_here/mega65-core-lgb/src/kickstart_dos.a65:934
 883F  20 4F A6  JSR   $A64F          | /home/lgb/prog_here/mega65-core-lgb/src/kickstart_dos.a65:943
 8842  00 50 61 72 74 69 74 69 6F 6E 20 6E 6F 74 20 69  |.Partition not i|
 8852  6E 74 65 72 65 73 74 69 6E 67 00                 |nteresting.     |
 885D  38        SEC                  | /home/lgb/prog_here/mega65-core-lgb/src/kickstart_dos.a65:946
 885E  60        RTS                  | /home/lgb/prog_here/mega65-core-lgb/src/kickstart_dos.a65:947
 885F  AE F6 BC  LDX   $BCF6          | /home/lgb/prog_here/mega65-core-lgb/src/kickstart_dos.a65:959
 8862  20 3A A7  JSR   $A73A          | /home/lgb/prog_here/mega65-core-lgb/src/kickstart_dos.a65:960
 8865  8C 7E 88  STY   $887E          | /home/lgb/prog_here/mega65-core-lgb/src/kickstart_dos.a65:961
 8868  8E 7F 88  STX   $887F          | /home/lgb/prog_here/mega65-core-lgb/src/kickstart_dos.a65:962
 886B  20 4F A6  JSR   $A64F          | /home/lgb/prog_here/mega65-core-lgb/src/kickstart_dos.a65:964
 886E  00 70 61 72 74 69 74 69 6F 6E 65 72 72 6F 72 3D  |.partitionerror=|
 887E  78 78 00                                         |xx.             |
 8881  18        CLC                  | /home/lgb/prog_here/mega65-core-lgb/src/kickstart_dos.a65:968
 8882  60        RTS                  | /home/lgb/prog_here/mega65-core-lgb/src/kickstart_dos.a65:969
 8883  20 4F A6  JSR   $A64F          | /home/lgb/prog_here/mega65-core-lgb/src/kickstart_dos.a65:1024
 8886  00 64 6F 73 5F 64 69 73 6B 5F 6F 70 65 6E 70 61  |.dos_disk_openpa|
 8896  72 74 69 74 69 6F 6E 3A 20 28 65 78 61 6D 69 6E  |rtition: (examin|
 88A6  65 20 56 6F 6C 20 49 44 29 00                    |e Vol ID).      |
 88B0  A9 00     LDA   #$00         | /home/lgb/prog_here/mega65-core-lgb/src/kickstart_dos.a65:1029
 88B2  8D F6 BC  STA   $BCF6          | /home/lgb/prog_here/mega65-core-lgb/src/kickstart_dos.a65:1030
 88B5  AD 01 BC  LDA   $BC01          | /home/lgb/prog_here/mega65-core-lgb/src/kickstart_dos.a65:1037
 88B8  0A        ASL                  | /home/lgb/prog_here/mega65-core-lgb/src/kickstart_dos.a65:1038
 88B9  0A        ASL                  | /home/lgb/prog_here/mega65-core-lgb/src/kickstart_dos.a65:1039
 88BA  0A        ASL                  | /home/lgb/prog_here/mega65-core-lgb/src/kickstart_dos.a65:1040
 88BB  0A        ASL                  | /home/lgb/prog_here/mega65-core-lgb/src/kickstart_dos.a65:1041
 88BC  0A        ASL                  | /home/lgb/prog_here/mega65-core-lgb/src/kickstart_dos.a65:1042
 88BD  8D 04 BC  STA   $BC04          | /home/lgb/prog_here/mega65-core-lgb/src/kickstart_dos.a65:1043
 88C0  09 00     ORA   #$00         | /home/lgb/prog_here/mega65-core-lgb/src/kickstart_dos.a65:1048
 88C2  A8        TAY                  | /home/lgb/prog_here/mega65-core-lgb/src/kickstart_dos.a65:1049
 88C3  A2 00     LDX   #$00         | /home/lgb/prog_here/mega65-core-lgb/src/kickstart_dos.a65:1050
 88C5  B9 00 BB  LDA   $BB00, Y       | /home/lgb/prog_here/mega65-core-lgb/src/kickstart_dos.a65:1052
 88C8  9D 81 D6  STA   $D681, X       | /home/lgb/prog_here/mega65-core-lgb/src/kickstart_dos.a65:1053
 88CB  C8        INY                  | /home/lgb/prog_here/mega65-core-lgb/src/kickstart_dos.a65:1054
 88CC  E8        INX                  | /home/lgb/prog_here/mega65-core-lgb/src/kickstart_dos.a65:1055
 88CD  E0 04     CPX   #$04         | /home/lgb/prog_here/mega65-core-lgb/src/kickstart_dos.a65:1056
 88CF  D0 F4     BNE   $00C5          | /home/lgb/prog_here/mega65-core-lgb/src/kickstart_dos.a65:1057
 88D1  20 55 AF  JSR   $AF55          | /home/lgb/prog_here/mega65-core-lgb/src/kickstart_dos.a65:1059
 88D4  20 0D 9A  JSR   $9A0D          | /home/lgb/prog_here/mega65-core-lgb/src/kickstart_dos.a65:1065
 88D7  20 55 AF  JSR   $AF55          | /home/lgb/prog_here/mega65-core-lgb/src/kickstart_dos.a65:1067
 88DA  20 2F 99  JSR   $992F          | /home/lgb/prog_here/mega65-core-lgb/src/kickstart_dos.a65:1069
 88DD  90 80     BCC   $005F          | /home/lgb/prog_here/mega65-core-lgb/src/kickstart_dos.a65:1070
 88DF  20 1F 99  JSR   $991F          | /home/lgb/prog_here/mega65-core-lgb/src/kickstart_dos.a65:1074
 88E2  A9 02     LDA   #$02         | /home/lgb/prog_here/mega65-core-lgb/src/kickstart_dos.a65:1081
 88E4  8D F6 BC  STA   $BCF6          | /home/lgb/prog_here/mega65-core-lgb/src/kickstart_dos.a65:1082
 88E7  AD FE DF  LDA   $DFFE          | /home/lgb/prog_here/mega65-core-lgb/src/kickstart_dos.a65:1084
 88EA  C9 55     CMP   #$55         | /home/lgb/prog_here/mega65-core-lgb/src/kickstart_dos.a65:1085
 88EC  F0 03     BEQ   $00F1          | /home/lgb/prog_here/mega65-core-lgb/src/kickstart_dos.a65:1086
 88EE  4C 5F 88  JMP   $885F          | /home/lgb/prog_here/mega65-core-lgb/src/kickstart_dos.a65:1087
 88F1  AD FF DF  LDA   $DFFF          | /home/lgb/prog_here/mega65-core-lgb/src/kickstart_dos.a65:1089
 88F4  C9 AA     CMP   #$AA         | /home/lgb/prog_here/mega65-core-lgb/src/kickstart_dos.a65:1090
 88F6  F0 03     BEQ   $00FB          | /home/lgb/prog_here/mega65-core-lgb/src/kickstart_dos.a65:1091
 88F8  4C 5F 88  JMP   $885F          | /home/lgb/prog_here/mega65-core-lgb/src/kickstart_dos.a65:1092
 88FB  20 4F A6  JSR   $A64F          | /home/lgb/prog_here/mega65-core-lgb/src/kickstart_dos.a65:1094
 88FE  00 50 61 72 74 6E 20 68 61 73 20 24 35 35 41 41  |.Partn has $55AA|
 890E  20 47 4F 4F 44 00                                | GOOD.          |
 8914  A9 03     LDA   #$03         | /home/lgb/prog_here/mega65-core-lgb/src/kickstart_dos.a65:1105
 8916  8D F6 BC  STA   $BCF6          | /home/lgb/prog_here/mega65-core-lgb/src/kickstart_dos.a65:1106
 8919  AD 11 DE  LDA   $DE11          | /home/lgb/prog_here/mega65-core-lgb/src/kickstart_dos.a65:1112
 891C  D3 41 FF  BNE   $885F          | /home/lgb/prog_here/mega65-core-lgb/src/kickstart_dos.a65:1113
 891F  AD 04 BC  LDA   $BC04          | /home/lgb/prog_here/mega65-core-lgb/src/kickstart_dos.a65:1119
 8922  09 17     ORA   #$17         | /home/lgb/prog_here/mega65-core-lgb/src/kickstart_dos.a65:1120
 8924  A8        TAY                  | /home/lgb/prog_here/mega65-core-lgb/src/kickstart_dos.a65:1121
 8925  AD 10 DE  LDA   $DE10          | /home/lgb/prog_here/mega65-core-lgb/src/kickstart_dos.a65:1122
 8928  99 00 BB  STA   $BB00, Y       | /home/lgb/prog_here/mega65-core-lgb/src/kickstart_dos.a65:1123
 892B  AD 04 BC  LDA   $BC04          | /home/lgb/prog_here/mega65-core-lgb/src/kickstart_dos.a65:1145
 892E  09 0D     ORA   #$0D         | /home/lgb/prog_here/mega65-core-lgb/src/kickstart_dos.a65:1146
 8930  A8        TAY                  | /home/lgb/prog_here/mega65-core-lgb/src/kickstart_dos.a65:1147
 8931  A2 00     LDX   #$00         | /home/lgb/prog_here/mega65-core-lgb/src/kickstart_dos.a65:1148
 8933  BD 0E DE  LDA   $DE0E, X       | /home/lgb/prog_here/mega65-core-lgb/src/kickstart_dos.a65:1150
 8936  99 00 BB  STA   $BB00, Y       | /home/lgb/prog_here/mega65-core-lgb/src/kickstart_dos.a65:1151
 8939  C8        INY                  | /home/lgb/prog_here/mega65-core-lgb/src/kickstart_dos.a65:1152
 893A  E8        INX                  | /home/lgb/prog_here/mega65-core-lgb/src/kickstart_dos.a65:1153
 893B  E0 02     CPX   #$02         | /home/lgb/prog_here/mega65-core-lgb/src/kickstart_dos.a65:1154
 893D  D0 F4     BNE   $0033          | /home/lgb/prog_here/mega65-core-lgb/src/kickstart_dos.a65:1155
 893F  AD 04 BC  LDA   $BC04          | /home/lgb/prog_here/mega65-core-lgb/src/kickstart_dos.a65:1161
 8942  09 09     ORA   #$09         | /home/lgb/prog_here/mega65-core-lgb/src/kickstart_dos.a65:1162
 8944  A8        TAY                  | /home/lgb/prog_here/mega65-core-lgb/src/kickstart_dos.a65:1163
 8945  A2 00     LDX   #$00         | /home/lgb/prog_here/mega65-core-lgb/src/kickstart_dos.a65:1164
 8947  BD 24 DE  LDA   $DE24, X       | /home/lgb/prog_here/mega65-core-lgb/src/kickstart_dos.a65:1166
 894A  99 00 BB  STA   $BB00, Y       | /home/lgb/prog_here/mega65-core-lgb/src/kickstart_dos.a65:1167
 894D  C8        INY                  | /home/lgb/prog_here/mega65-core-lgb/src/kickstart_dos.a65:1168
 894E  E8        INX                  | /home/lgb/prog_here/mega65-core-lgb/src/kickstart_dos.a65:1169
 894F  E0 04     CPX   #$04         | /home/lgb/prog_here/mega65-core-lgb/src/kickstart_dos.a65:1170
 8951  D0 F4     BNE   $0047          | /home/lgb/prog_here/mega65-core-lgb/src/kickstart_dos.a65:1171
 8953  A9 04     LDA   #$04         | /home/lgb/prog_here/mega65-core-lgb/src/kickstart_dos.a65:1181
 8955  8D F6 BC  STA   $BCF6          | /home/lgb/prog_here/mega65-core-lgb/src/kickstart_dos.a65:1182
 8958  AD 2D DE  LDA   $DE2D          | /home/lgb/prog_here/mega65-core-lgb/src/kickstart_dos.a65:1184
 895B  0D 2E DE  ORA   $DE2E          | /home/lgb/prog_here/mega65-core-lgb/src/kickstart_dos.a65:1185
 895E  0D 2F DE  ORA   $DE2F          | /home/lgb/prog_here/mega65-core-lgb/src/kickstart_dos.a65:1186
 8961  F0 03     BEQ   $0066          | /home/lgb/prog_here/mega65-core-lgb/src/kickstart_dos.a65:1191
 8963  4C 5F 88  JMP   $885F          | /home/lgb/prog_here/mega65-core-lgb/src/kickstart_dos.a65:1192
 8966  AC 04 BC  LDY   $BC04          | /home/lgb/prog_here/mega65-core-lgb/src/kickstart_dos.a65:1206
 8969  AD 2C DE  LDA   $DE2C          | /home/lgb/prog_here/mega65-core-lgb/src/kickstart_dos.a65:1207
 896C  99 0F BB  STA   $BB0F, Y       | /home/lgb/prog_here/mega65-core-lgb/src/kickstart_dos.a65:1208
 896F  AD 04 BC  LDA   $BC04          | /home/lgb/prog_here/mega65-core-lgb/src/kickstart_dos.a65:1233
 8972  09 0D     ORA   #$0D         | /home/lgb/prog_here/mega65-core-lgb/src/kickstart_dos.a65:1234
 8974  A8        TAY                  | /home/lgb/prog_here/mega65-core-lgb/src/kickstart_dos.a65:1235
 8975  AD 04 BC  LDA   $BC04          | /home/lgb/prog_here/mega65-core-lgb/src/kickstart_dos.a65:1236
 8978  09 18     ORA   #$18         | /home/lgb/prog_here/mega65-core-lgb/src/kickstart_dos.a65:1237
 897A  AA        TAX                  | /home/lgb/prog_here/mega65-core-lgb/src/kickstart_dos.a65:1238
 897B  A3 02     LDZ   #$02         | /home/lgb/prog_here/mega65-core-lgb/src/kickstart_dos.a65:1239
 897D  B9 00 BB  LDA   $BB00, Y       | /home/lgb/prog_here/mega65-core-lgb/src/kickstart_dos.a65:1241
 8980  9D 00 BB  STA   $BB00, X       | /home/lgb/prog_here/mega65-core-lgb/src/kickstart_dos.a65:1242
 8983  C8        INY                  | /home/lgb/prog_here/mega65-core-lgb/src/kickstart_dos.a65:1243
 8984  E8        INX                  | /home/lgb/prog_here/mega65-core-lgb/src/kickstart_dos.a65:1244
 8985  3B        DEZ                  | /home/lgb/prog_here/mega65-core-lgb/src/kickstart_dos.a65:1245
 8986  D0 F5     BNE   $007D          | /home/lgb/prog_here/mega65-core-lgb/src/kickstart_dos.a65:1246
 8988  6B        TZA                  | /home/lgb/prog_here/mega65-core-lgb/src/kickstart_dos.a65:1251
 8989  9D 00 BB  STA   $BB00, X       | /home/lgb/prog_here/mega65-core-lgb/src/kickstart_dos.a65:1252
 898C  9D 01 BB  STA   $BB01, X       | /home/lgb/prog_here/mega65-core-lgb/src/kickstart_dos.a65:1253
 898F  A9 05     LDA   #$05         | /home/lgb/prog_here/mega65-core-lgb/src/kickstart_dos.a65:1269
 8991  8D F6 BC  STA   $BCF6          | /home/lgb/prog_here/mega65-core-lgb/src/kickstart_dos.a65:1270
 8994  AB 10 DE  LDZ   $DE10          | /home/lgb/prog_here/mega65-core-lgb/src/kickstart_dos.a65:1274
 8997  F3 C6 FE  BEQ   $885F          | /home/lgb/prog_here/mega65-core-lgb/src/kickstart_dos.a65:1275
 899A  C2 02     CPZ   #$02         | /home/lgb/prog_here/mega65-core-lgb/src/kickstart_dos.a65:1276
 899C  D3 C1 FE  BNE   $885F          | /home/lgb/prog_here/mega65-core-lgb/src/kickstart_dos.a65:1277
 899F  AD 04 BC  LDA   $BC04          | /home/lgb/prog_here/mega65-core-lgb/src/kickstart_dos.a65:1281
 89A2  09 18     ORA   #$18         | /home/lgb/prog_here/mega65-core-lgb/src/kickstart_dos.a65:1282
 89A4  A8        TAY                  | /home/lgb/prog_here/mega65-core-lgb/src/kickstart_dos.a65:1283
 89A5  A2 00     LDX   #$00         | /home/lgb/prog_here/mega65-core-lgb/src/kickstart_dos.a65:1284
 89A7  18        CLC                  | /home/lgb/prog_here/mega65-core-lgb/src/kickstart_dos.a65:1285
 89A8  08        PHP                  | /home/lgb/prog_here/mega65-core-lgb/src/kickstart_dos.a65:1286
 89A9  28        PLP                  | /home/lgb/prog_here/mega65-core-lgb/src/kickstart_dos.a65:1288
 89AA  B9 00 BB  LDA   $BB00, Y       | /home/lgb/prog_here/mega65-core-lgb/src/kickstart_dos.a65:1289
 89AD  7D 24 DE  ADC   $DE24, X       | /home/lgb/prog_here/mega65-core-lgb/src/kickstart_dos.a65:1290
 89B0  99 00 BB  STA   $BB00, Y       | /home/lgb/prog_here/mega65-core-lgb/src/kickstart_dos.a65:1291
 89B3  08        PHP                  | /home/lgb/prog_here/mega65-core-lgb/src/kickstart_dos.a65:1292
 89B4  C8        INY                  | /home/lgb/prog_here/mega65-core-lgb/src/kickstart_dos.a65:1293
 89B5  E8        INX                  | /home/lgb/prog_here/mega65-core-lgb/src/kickstart_dos.a65:1294
 89B6  E0 04     CPX   #$04         | /home/lgb/prog_here/mega65-core-lgb/src/kickstart_dos.a65:1295
 89B8  D0 EF     BNE   $00A9          | /home/lgb/prog_here/mega65-core-lgb/src/kickstart_dos.a65:1296
 89BA  28        PLP                  | /home/lgb/prog_here/mega65-core-lgb/src/kickstart_dos.a65:1298
 89BB  3B        DEZ                  | /home/lgb/prog_here/mega65-core-lgb/src/kickstart_dos.a65:1302
 89BC  D0 E1     BNE   $009F          | /home/lgb/prog_here/mega65-core-lgb/src/kickstart_dos.a65:1303
 89BE  AD 04 BC  LDA   $BC04          | /home/lgb/prog_here/mega65-core-lgb/src/kickstart_dos.a65:1324
 89C1  09 18     ORA   #$18         | /home/lgb/prog_here/mega65-core-lgb/src/kickstart_dos.a65:1325
 89C3  AA        TAX                  | /home/lgb/prog_here/mega65-core-lgb/src/kickstart_dos.a65:1326
 89C4  AD 04 BC  LDA   $BC04          | /home/lgb/prog_here/mega65-core-lgb/src/kickstart_dos.a65:1327
 89C7  09 12     ORA   #$12         | /home/lgb/prog_here/mega65-core-lgb/src/kickstart_dos.a65:1328
 89C9  A8        TAY                  | /home/lgb/prog_here/mega65-core-lgb/src/kickstart_dos.a65:1329
 89CA  38        SEC                  | /home/lgb/prog_here/mega65-core-lgb/src/kickstart_dos.a65:1330
 89CB  AD 20 DE  LDA   $DE20          | /home/lgb/prog_here/mega65-core-lgb/src/kickstart_dos.a65:1331
 89CE  FD 00 BB  SBC   $BB00, X       | /home/lgb/prog_here/mega65-core-lgb/src/kickstart_dos.a65:1332
 89D1  99 00 BB  STA   $BB00, Y       | /home/lgb/prog_here/mega65-core-lgb/src/kickstart_dos.a65:1333
 89D4  AD 21 DE  LDA   $DE21          | /home/lgb/prog_here/mega65-core-lgb/src/kickstart_dos.a65:1334
 89D7  FD 01 BB  SBC   $BB01, X       | /home/lgb/prog_here/mega65-core-lgb/src/kickstart_dos.a65:1335
 89DA  99 01 BB  STA   $BB01, Y       | /home/lgb/prog_here/mega65-core-lgb/src/kickstart_dos.a65:1336
 89DD  AD 22 DE  LDA   $DE22          | /home/lgb/prog_here/mega65-core-lgb/src/kickstart_dos.a65:1337
 89E0  FD 02 BB  SBC   $BB02, X       | /home/lgb/prog_here/mega65-core-lgb/src/kickstart_dos.a65:1338
 89E3  99 02 BB  STA   $BB02, Y       | /home/lgb/prog_here/mega65-core-lgb/src/kickstart_dos.a65:1339
 89E6  AD 23 DE  LDA   $DE23          | /home/lgb/prog_here/mega65-core-lgb/src/kickstart_dos.a65:1340
 89E9  FD 03 BB  SBC   $BB03, X       | /home/lgb/prog_here/mega65-core-lgb/src/kickstart_dos.a65:1341
 89EC  99 03 BB  STA   $BB03, Y       | /home/lgb/prog_here/mega65-core-lgb/src/kickstart_dos.a65:1342
 89EF  AD 04 BC  LDA   $BC04          | /home/lgb/prog_here/mega65-core-lgb/src/kickstart_dos.a65:1350
 89F2  09 16     ORA   #$16         | /home/lgb/prog_here/mega65-core-lgb/src/kickstart_dos.a65:1351
 89F4  A8        TAY                  | /home/lgb/prog_here/mega65-core-lgb/src/kickstart_dos.a65:1352
 89F5  AD 0D DE  LDA   $DE0D          | /home/lgb/prog_here/mega65-core-lgb/src/kickstart_dos.a65:1353
 89F8  99 00 BB  STA   $BB00, Y       | /home/lgb/prog_here/mega65-core-lgb/src/kickstart_dos.a65:1354
 89FB  AD 0D DE  LDA   $DE0D          | /home/lgb/prog_here/mega65-core-lgb/src/kickstart_dos.a65:1378
 89FE  4B        TAZ                  | /home/lgb/prog_here/mega65-core-lgb/src/kickstart_dos.a65:1379
 89FF  29 FE     AND   #$FE         | /home/lgb/prog_here/mega65-core-lgb/src/kickstart_dos.a65:1381
 8A01  F0 1E     BEQ   $0021          | /home/lgb/prog_here/mega65-core-lgb/src/kickstart_dos.a65:1382
 8A03  AD 04 BC  LDA   $BC04          | /home/lgb/prog_here/mega65-core-lgb/src/kickstart_dos.a65:1391
 8A06  09 12     ORA   #$12         | /home/lgb/prog_here/mega65-core-lgb/src/kickstart_dos.a65:1392
 8A08  18        CLC                  | /home/lgb/prog_here/mega65-core-lgb/src/kickstart_dos.a65:1396
 8A09  69 03     ADC   #$03         | /home/lgb/prog_here/mega65-core-lgb/src/kickstart_dos.a65:1397
 8A0B  A8        TAY                  | /home/lgb/prog_here/mega65-core-lgb/src/kickstart_dos.a65:1398
 8A0C  A2 03     LDX   #$03         | /home/lgb/prog_here/mega65-core-lgb/src/kickstart_dos.a65:1400
 8A0E  18        CLC                  | /home/lgb/prog_here/mega65-core-lgb/src/kickstart_dos.a65:1401
 8A0F  B9 00 BB  LDA   $BB00, Y       | /home/lgb/prog_here/mega65-core-lgb/src/kickstart_dos.a65:1403
 8A12  6A        ROR                  | /home/lgb/prog_here/mega65-core-lgb/src/kickstart_dos.a65:1404
 8A13  99 00 BB  STA   $BB00, Y       | /home/lgb/prog_here/mega65-core-lgb/src/kickstart_dos.a65:1405
 8A16  88        DEY                  | /home/lgb/prog_here/mega65-core-lgb/src/kickstart_dos.a65:1406
 8A17  CA        DEX                  | /home/lgb/prog_here/mega65-core-lgb/src/kickstart_dos.a65:1407
 8A18  10 F5     BPL   $000F          | /home/lgb/prog_here/mega65-core-lgb/src/kickstart_dos.a65:1408
 8A1A  6B        TZA                  | /home/lgb/prog_here/mega65-core-lgb/src/kickstart_dos.a65:1410
 8A1B  4A        LSR                  | /home/lgb/prog_here/mega65-core-lgb/src/kickstart_dos.a65:1411
 8A1C  4B        TAZ                  | /home/lgb/prog_here/mega65-core-lgb/src/kickstart_dos.a65:1412
 8A1D  29 FE     AND   #$FE         | /home/lgb/prog_here/mega65-core-lgb/src/kickstart_dos.a65:1413
 8A1F  D0 E2     BNE   $0003          | /home/lgb/prog_here/mega65-core-lgb/src/kickstart_dos.a65:1414
 8A21  AD 04 BC  LDA   $BC04          | /home/lgb/prog_here/mega65-core-lgb/src/kickstart_dos.a65:1431
 8A24  09 16     ORA   #$16         | /home/lgb/prog_here/mega65-core-lgb/src/kickstart_dos.a65:1432
 8A26  A8        TAY                  | /home/lgb/prog_here/mega65-core-lgb/src/kickstart_dos.a65:1433
 8A27  AD 0D DE  LDA   $DE0D          | /home/lgb/prog_here/mega65-core-lgb/src/kickstart_dos.a65:1434
 8A2A  99 00 BB  STA   $BB00, Y       | /home/lgb/prog_here/mega65-core-lgb/src/kickstart_dos.a65:1435
 8A2D  AD 04 BC  LDA   $BC04          | /home/lgb/prog_here/mega65-core-lgb/src/kickstart_dos.a65:1452
 8A30  09 16     ORA   #$16         | /home/lgb/prog_here/mega65-core-lgb/src/kickstart_dos.a65:1453
 8A32  A8        TAY                  | /home/lgb/prog_here/mega65-core-lgb/src/kickstart_dos.a65:1454
 8A33  A9 06     LDA   #$06         | /home/lgb/prog_here/mega65-core-lgb/src/kickstart_dos.a65:1455
 8A35  8D F6 BC  STA   $BCF6          | /home/lgb/prog_here/mega65-core-lgb/src/kickstart_dos.a65:1456
 8A38  B9 03 BB  LDA   $BB03, Y       | /home/lgb/prog_here/mega65-core-lgb/src/kickstart_dos.a65:1458
 8A3B  19 02 BB  ORA   $BB02, Y       | /home/lgb/prog_here/mega65-core-lgb/src/kickstart_dos.a65:1459
 8A3E  F3 1F FE  BEQ   $885F          | /home/lgb/prog_here/mega65-core-lgb/src/kickstart_dos.a65:1460
 8A41  AD 04 BC  LDA   $BC04          | /home/lgb/prog_here/mega65-core-lgb/src/kickstart_dos.a65:1464
 8A44  09 10     ORA   #$10         | /home/lgb/prog_here/mega65-core-lgb/src/kickstart_dos.a65:1465
 8A46  A8        TAY                  | /home/lgb/prog_here/mega65-core-lgb/src/kickstart_dos.a65:1466
 8A47  A2 03     LDX   #$03         | /home/lgb/prog_here/mega65-core-lgb/src/kickstart_dos.a65:1468
 8A49  BD 2C DE  LDA   $DE2C, X       | /home/lgb/prog_here/mega65-core-lgb/src/kickstart_dos.a65:1469
 8A4C  99 00 BB  STA   $BB00, Y       | /home/lgb/prog_here/mega65-core-lgb/src/kickstart_dos.a65:1470
 8A4F  CA        DEX                  | /home/lgb/prog_here/mega65-core-lgb/src/kickstart_dos.a65:1471
 8A50  10 F7     BPL   $0049          | /home/lgb/prog_here/mega65-core-lgb/src/kickstart_dos.a65:1473
 8A52  AD 04 BC  LDA   $BC04          | /home/lgb/prog_here/mega65-core-lgb/src/kickstart_dos.a65:1503
 8A55  09 08     ORA   #$08         | /home/lgb/prog_here/mega65-core-lgb/src/kickstart_dos.a65:1504
 8A57  A8        TAY                  | /home/lgb/prog_here/mega65-core-lgb/src/kickstart_dos.a65:1505
 8A58  A9 0F     LDA   #$0F         | /home/lgb/prog_here/mega65-core-lgb/src/kickstart_dos.a65:1506
 8A5A  99 00 BB  STA   $BB00, Y       | /home/lgb/prog_here/mega65-core-lgb/src/kickstart_dos.a65:1507
 8A5D  20 4F A6  JSR   $A64F          | /home/lgb/prog_here/mega65-core-lgb/src/kickstart_dos.a65:1517
 8A60  00 46 41 54 33 32 20 70 61 72 74 69 74 69 6F 6E  |.FAT32 partition|
 8A70  20 64 61 74 61 20 63 6F 70 69 65 64 20 74 6F 20  | data copied to |
 8A80  64 6F 73 5F 64 69 73 6B 5F 74 61 62 6C 65 00     |dos_disk_table. |
 8A8F  EE 01 BC  INC   $BC01          | /home/lgb/prog_here/mega65-core-lgb/src/kickstart_dos.a65:1521
 8A92  A9 00     LDA   #$00         | /home/lgb/prog_here/mega65-core-lgb/src/kickstart_dos.a65:1528
 8A94  8D F6 BC  STA   $BCF6          | /home/lgb/prog_here/mega65-core-lgb/src/kickstart_dos.a65:1529
 8A97  38        SEC                  | /home/lgb/prog_here/mega65-core-lgb/src/kickstart_dos.a65:1531
 8A98  60        RTS                  | /home/lgb/prog_here/mega65-core-lgb/src/kickstart_dos.a65:1532
 8A99  8D F6 BC  STA   $BCF6          | /home/lgb/prog_here/mega65-core-lgb/src/kickstart_dos.a65:1539
 8A9C  18        CLC                  | /home/lgb/prog_here/mega65-core-lgb/src/kickstart_dos.a65:1543
 8A9D  60        RTS                  | /home/lgb/prog_here/mega65-core-lgb/src/kickstart_dos.a65:1544
 8A9E  A9 80     LDA   #$80         | /home/lgb/prog_here/mega65-core-lgb/src/kickstart_dos.a65:1554
 8AA0  8D F6 BC  STA   $BCF6          | /home/lgb/prog_here/mega65-core-lgb/src/kickstart_dos.a65:1555
 8AA3  EC 01 BC  CPX   $BC01          | /home/lgb/prog_here/mega65-core-lgb/src/kickstart_dos.a65:1557
 8AA6  B3 B7 FD  BCS   $885F          | /home/lgb/prog_here/mega65-core-lgb/src/kickstart_dos.a65:1558
 8AA9  8E 03 BC  STX   $BC03          | /home/lgb/prog_here/mega65-core-lgb/src/kickstart_dos.a65:1560
 8AAC  8A        TXA                  | /home/lgb/prog_here/mega65-core-lgb/src/kickstart_dos.a65:1561
 8AAD  0A        ASL                  | /home/lgb/prog_here/mega65-core-lgb/src/kickstart_dos.a65:1562
 8AAE  0A        ASL                  | /home/lgb/prog_here/mega65-core-lgb/src/kickstart_dos.a65:1563
 8AAF  0A        ASL                  | /home/lgb/prog_here/mega65-core-lgb/src/kickstart_dos.a65:1564
 8AB0  0A        ASL                  | /home/lgb/prog_here/mega65-core-lgb/src/kickstart_dos.a65:1565
 8AB1  0A        ASL                  | /home/lgb/prog_here/mega65-core-lgb/src/kickstart_dos.a65:1566
 8AB2  8D 04 BC  STA   $BC04          | /home/lgb/prog_here/mega65-core-lgb/src/kickstart_dos.a65:1567
 8AB5  AE 03 BC  LDX   $BC03          | /home/lgb/prog_here/mega65-core-lgb/src/kickstart_dos.a65:1569
 8AB8  20 3A A7  JSR   $A73A          | /home/lgb/prog_here/mega65-core-lgb/src/kickstart_dos.a65:1570
 8ABB  8C DA 8A  STY   $8ADA          | /home/lgb/prog_here/mega65-core-lgb/src/kickstart_dos.a65:1571
 8ABE  8E DB 8A  STX   $8ADB          | /home/lgb/prog_here/mega65-core-lgb/src/kickstart_dos.a65:1572
 8AC1  20 4F A6  JSR   $A64F          | /home/lgb/prog_here/mega65-core-lgb/src/kickstart_dos.a65:1576
 8AC4  00 64 6F 73 5F 73 65 74 5F 63 75 72 72 65 6E 74  |.dos_set_current|
 8AD4  5F 64 69 73 6B 3D 78 78 00                       |_disk=xx.       |
 8ADD  38        SEC                  | /home/lgb/prog_here/mega65-core-lgb/src/kickstart_dos.a65:1580
 8ADE  60        RTS                  | /home/lgb/prog_here/mega65-core-lgb/src/kickstart_dos.a65:1581
 8ADF  20 9E 8A  JSR   $8A9E          | /home/lgb/prog_here/mega65-core-lgb/src/kickstart_dos.a65:1592
 8AE2  90 B8     BCC   $009C          | /home/lgb/prog_here/mega65-core-lgb/src/kickstart_dos.a65:1593
 8AE4  AE 04 BC  LDX   $BC04          | /home/lgb/prog_here/mega65-core-lgb/src/kickstart_dos.a65:1597
 8AE7  BD 10 BB  LDA   $BB10, X       | /home/lgb/prog_here/mega65-core-lgb/src/kickstart_dos.a65:1598
 8AEA  8D 05 BC  STA   $BC05          | /home/lgb/prog_here/mega65-core-lgb/src/kickstart_dos.a65:1599
 8AED  BD 11 BB  LDA   $BB11, X       | /home/lgb/prog_here/mega65-core-lgb/src/kickstart_dos.a65:1600
 8AF0  8D 06 BC  STA   $BC06          | /home/lgb/prog_here/mega65-core-lgb/src/kickstart_dos.a65:1601
 8AF3  A9 00     LDA   #$00         | /home/lgb/prog_here/mega65-core-lgb/src/kickstart_dos.a65:1603
 8AF5  8D 07 BC  STA   $BC07          | /home/lgb/prog_here/mega65-core-lgb/src/kickstart_dos.a65:1604
 8AF8  8D 08 BC  STA   $BC08          | /home/lgb/prog_here/mega65-core-lgb/src/kickstart_dos.a65:1605
 8AFB  4C 92 8A  JMP   $8A92          | /home/lgb/prog_here/mega65-core-lgb/src/kickstart_dos.a65:1610
 8AFE  A2 03     LDX   #$03         | /home/lgb/prog_here/mega65-core-lgb/src/kickstart_dos.a65:1620
 8B00  BD AF BC  LDA   $BCAF, X       | /home/lgb/prog_here/mega65-core-lgb/src/kickstart_dos.a65:1621
 8B03  9D 81 D6  STA   $D681, X       | /home/lgb/prog_here/mega65-core-lgb/src/kickstart_dos.a65:1622
 8B06  CA        DEX                  | /home/lgb/prog_here/mega65-core-lgb/src/kickstart_dos.a65:1623
 8B07  10 F7     BPL   $0000          | /home/lgb/prog_here/mega65-core-lgb/src/kickstart_dos.a65:1624
 8B09  A9 FF     LDA   #$FF         | /home/lgb/prog_here/mega65-core-lgb/src/kickstart_dos.a65:1629
 8B0B  AA        TAX                  | /home/lgb/prog_here/mega65-core-lgb/src/kickstart_dos.a65:1630
 8B0C  A8        TAY                  | /home/lgb/prog_here/mega65-core-lgb/src/kickstart_dos.a65:1631
 8B0D  4B        TAZ                  | /home/lgb/prog_here/mega65-core-lgb/src/kickstart_dos.a65:1632
 8B0E  A9 FE     LDA   #$FE         | /home/lgb/prog_here/mega65-core-lgb/src/kickstart_dos.a65:1633
 8B10  20 0A 96  JSR   $960A          | /home/lgb/prog_here/mega65-core-lgb/src/kickstart_dos.a65:1634
 8B13  AE 04 BC  LDX   $BC04          | /home/lgb/prog_here/mega65-core-lgb/src/kickstart_dos.a65:1638
 8B16  BD 16 BB  LDA   $BB16, X       | /home/lgb/prog_here/mega65-core-lgb/src/kickstart_dos.a65:1639
 8B19  A8        TAY                  | /home/lgb/prog_here/mega65-core-lgb/src/kickstart_dos.a65:1640
 8B1A  29 FE     AND   #$FE         | /home/lgb/prog_here/mega65-core-lgb/src/kickstart_dos.a65:1641
 8B1C  F0 14     BEQ   $0032          | /home/lgb/prog_here/mega65-core-lgb/src/kickstart_dos.a65:1642
 8B1E  18        CLC                  | /home/lgb/prog_here/mega65-core-lgb/src/kickstart_dos.a65:1644
 8B1F  2E 81 D6  ROL   $D681          | /home/lgb/prog_here/mega65-core-lgb/src/kickstart_dos.a65:1645
 8B22  2E 82 D6  ROL   $D682          | /home/lgb/prog_here/mega65-core-lgb/src/kickstart_dos.a65:1646
 8B25  2E 83 D6  ROL   $D683          | /home/lgb/prog_here/mega65-core-lgb/src/kickstart_dos.a65:1647
 8B28  2E 84 D6  ROL   $D684          | /home/lgb/prog_here/mega65-core-lgb/src/kickstart_dos.a65:1648
 8B2B  98        TYA                  | /home/lgb/prog_here/mega65-core-lgb/src/kickstart_dos.a65:1649
 8B2C  4A        LSR                  | /home/lgb/prog_here/mega65-core-lgb/src/kickstart_dos.a65:1650
 8B2D  A8        TAY                  | /home/lgb/prog_here/mega65-core-lgb/src/kickstart_dos.a65:1651
 8B2E  29 FE     AND   #$FE         | /home/lgb/prog_here/mega65-core-lgb/src/kickstart_dos.a65:1652
 8B30  D0 EC     BNE   $001E          | /home/lgb/prog_here/mega65-core-lgb/src/kickstart_dos.a65:1653
 8B32  A9 18     LDA   #$18         | /home/lgb/prog_here/mega65-core-lgb/src/kickstart_dos.a65:1659
 8B34  20 29 96  JSR   $9629          | /home/lgb/prog_here/mega65-core-lgb/src/kickstart_dos.a65:1660
 8B37  A9 00     LDA   #$00         | /home/lgb/prog_here/mega65-core-lgb/src/kickstart_dos.a65:1664
 8B39  20 29 96  JSR   $9629          | /home/lgb/prog_here/mega65-core-lgb/src/kickstart_dos.a65:1665
 8B3C  38        SEC                  | /home/lgb/prog_here/mega65-core-lgb/src/kickstart_dos.a65:1671
 8B3D  60        RTS                  | /home/lgb/prog_here/mega65-core-lgb/src/kickstart_dos.a65:1672
 8B3E  AE 66 BC  LDX   $BC66          | /home/lgb/prog_here/mega65-core-lgb/src/kickstart_dos.a65:1680
 8B41  E0 3F     CPX   #$3F         | /home/lgb/prog_here/mega65-core-lgb/src/kickstart_dos.a65:1681
 8B43  A9 81     LDA   #$81         | /home/lgb/prog_here/mega65-core-lgb/src/kickstart_dos.a65:1682
 8B45  90 03     BCC   $004A          | /home/lgb/prog_here/mega65-core-lgb/src/kickstart_dos.a65:1683
 8B47  4C 99 8A  JMP   $8A99          | /home/lgb/prog_here/mega65-core-lgb/src/kickstart_dos.a65:1684
 8B4A  BD 67 BC  LDA   $BC67, X       | /home/lgb/prog_here/mega65-core-lgb/src/kickstart_dos.a65:1687
 8B4D  20 3F 98  JSR   $983F          | /home/lgb/prog_here/mega65-core-lgb/src/kickstart_dos.a65:1688
 8B50  9D 67 BC  STA   $BC67, X       | /home/lgb/prog_here/mega65-core-lgb/src/kickstart_dos.a65:1689
 8B53  E8        INX                  | /home/lgb/prog_here/mega65-core-lgb/src/kickstart_dos.a65:1690
 8B54  EC 66 BC  CPX   $BC66          | /home/lgb/prog_here/mega65-core-lgb/src/kickstart_dos.a65:1691
 8B57  D0 F1     BNE   $004A          | /home/lgb/prog_here/mega65-core-lgb/src/kickstart_dos.a65:1692
 8B59  38        SEC                  | /home/lgb/prog_here/mega65-core-lgb/src/kickstart_dos.a65:1693
 8B5A  60        RTS                  | /home/lgb/prog_here/mega65-core-lgb/src/kickstart_dos.a65:1694
 8B5B  A2 00     LDX   #$00         | /home/lgb/prog_here/mega65-core-lgb/src/kickstart_dos.a65:1700
 8B5D  8A        TXA                  | /home/lgb/prog_here/mega65-core-lgb/src/kickstart_dos.a65:1702
 8B5E  0A        ASL                  | /home/lgb/prog_here/mega65-core-lgb/src/kickstart_dos.a65:1703
 8B5F  0A        ASL                  | /home/lgb/prog_here/mega65-core-lgb/src/kickstart_dos.a65:1704
 8B60  0A        ASL                  | /home/lgb/prog_here/mega65-core-lgb/src/kickstart_dos.a65:1705
 8B61  0A        ASL                  | /home/lgb/prog_here/mega65-core-lgb/src/kickstart_dos.a65:1706
 8B62  A8        TAY                  | /home/lgb/prog_here/mega65-core-lgb/src/kickstart_dos.a65:1707
 8B63  B9 B4 BC  LDA   $BCB4, Y       | /home/lgb/prog_here/mega65-core-lgb/src/kickstart_dos.a65:1708
 8B66  C9 FF     CMP   #$FF         | /home/lgb/prog_here/mega65-core-lgb/src/kickstart_dos.a65:1709
 8B68  F0 0A     BEQ   $0074          | /home/lgb/prog_here/mega65-core-lgb/src/kickstart_dos.a65:1710
 8B6A  E8        INX                  | /home/lgb/prog_here/mega65-core-lgb/src/kickstart_dos.a65:1711
 8B6B  E0 04     CPX   #$04         | /home/lgb/prog_here/mega65-core-lgb/src/kickstart_dos.a65:1712
 8B6D  D0 EE     BNE   $005D          | /home/lgb/prog_here/mega65-core-lgb/src/kickstart_dos.a65:1713
 8B6F  A9 84     LDA   #$84         | /home/lgb/prog_here/mega65-core-lgb/src/kickstart_dos.a65:1715
 8B71  4C 99 8A  JMP   $8A99          | /home/lgb/prog_here/mega65-core-lgb/src/kickstart_dos.a65:1716
 8B74  A0 0F     LDY   #$0F         | /home/lgb/prog_here/mega65-core-lgb/src/kickstart_dos.a65:1724
 8B76  A9 00     LDA   #$00         | /home/lgb/prog_here/mega65-core-lgb/src/kickstart_dos.a65:1725
 8B78  99 B4 BC  STA   $BCB4, Y       | /home/lgb/prog_here/mega65-core-lgb/src/kickstart_dos.a65:1727
 8B7B  88        DEY                  | /home/lgb/prog_here/mega65-core-lgb/src/kickstart_dos.a65:1728
 8B7C  D0 FA     BNE   $0078          | /home/lgb/prog_here/mega65-core-lgb/src/kickstart_dos.a65:1729
 8B7E  8E F4 BC  STX   $BCF4          | /home/lgb/prog_here/mega65-core-lgb/src/kickstart_dos.a65:1733
 8B81  8A        TXA                  | /home/lgb/prog_here/mega65-core-lgb/src/kickstart_dos.a65:1734
 8B82  0A        ASL                  | /home/lgb/prog_here/mega65-core-lgb/src/kickstart_dos.a65:1735
 8B83  0A        ASL                  | /home/lgb/prog_here/mega65-core-lgb/src/kickstart_dos.a65:1736
 8B84  0A        ASL                  | /home/lgb/prog_here/mega65-core-lgb/src/kickstart_dos.a65:1737
 8B85  0A        ASL                  | /home/lgb/prog_here/mega65-core-lgb/src/kickstart_dos.a65:1738
 8B86  8D F5 BC  STA   $BCF5          | /home/lgb/prog_here/mega65-core-lgb/src/kickstart_dos.a65:1739
 8B89  38        SEC                  | /home/lgb/prog_here/mega65-core-lgb/src/kickstart_dos.a65:1740
 8B8A  60        RTS                  | /home/lgb/prog_here/mega65-core-lgb/src/kickstart_dos.a65:1741
 8B8B  20 4F A6  JSR   $A64F          | /home/lgb/prog_here/mega65-core-lgb/src/kickstart_dos.a65:1752
 8B8E  00 64 6F 73 5F 63 6C 65 61 72 61 6C 6C 3A 00     |.dos_clearall:. |
 8B9D  A9 FF     LDA   #$FF         | /home/lgb/prog_here/mega65-core-lgb/src/kickstart_dos.a65:1755
 8B9F  8D B4 BC  STA   $BCB4          | /home/lgb/prog_here/mega65-core-lgb/src/kickstart_dos.a65:1756
 8BA2  8D C4 BC  STA   $BCC4          | /home/lgb/prog_here/mega65-core-lgb/src/kickstart_dos.a65:1757
 8BA5  8D D4 BC  STA   $BCD4          | /home/lgb/prog_here/mega65-core-lgb/src/kickstart_dos.a65:1758
 8BA8  8D E4 BC  STA   $BCE4          | /home/lgb/prog_here/mega65-core-lgb/src/kickstart_dos.a65:1759
 8BAB  A2 00     LDX   #$00         | /home/lgb/prog_here/mega65-core-lgb/src/kickstart_dos.a65:1760
 8BAD  A9 00     LDA   #$00         | /home/lgb/prog_here/mega65-core-lgb/src/kickstart_dos.a65:1761
 8BAF  9D 00 BB  STA   $BB00, X       | /home/lgb/prog_here/mega65-core-lgb/src/kickstart_dos.a65:1762
 8BB2  E8        INX                  | /home/lgb/prog_here/mega65-core-lgb/src/kickstart_dos.a65:1763
 8BB3  D0 FA     BNE   $00AF          | /home/lgb/prog_here/mega65-core-lgb/src/kickstart_dos.a65:1764
 8BB5  38        SEC                  | /home/lgb/prog_here/mega65-core-lgb/src/kickstart_dos.a65:1765
 8BB6  60        RTS                  | /home/lgb/prog_here/mega65-core-lgb/src/kickstart_dos.a65:1766
 8BB7  AE F5 BC  LDX   $BCF5          | /home/lgb/prog_here/mega65-core-lgb/src/kickstart_dos.a65:1781
 8BBA  BD B5 BC  LDA   $BCB5, X       | /home/lgb/prog_here/mega65-core-lgb/src/kickstart_dos.a65:1782
 8BBD  C9 01     CMP   #$01         | /home/lgb/prog_here/mega65-core-lgb/src/kickstart_dos.a65:1783
 8BBF  D0 00     BNE   $00C1          | /home/lgb/prog_here/mega65-core-lgb/src/kickstart_dos.a65:1784
 8BC1  AE F5 BC  LDX   $BCF5          | /home/lgb/prog_here/mega65-core-lgb/src/kickstart_dos.a65:1798
 8BC4  A9 FF     LDA   #$FF         | /home/lgb/prog_here/mega65-core-lgb/src/kickstart_dos.a65:1799
 8BC6  9D B4 BC  STA   $BCB4, X       | /home/lgb/prog_here/mega65-core-lgb/src/kickstart_dos.a65:1800
 8BC9  38        SEC                  | /home/lgb/prog_here/mega65-core-lgb/src/kickstart_dos.a65:1801
 8BCA  60        RTS                  | /home/lgb/prog_here/mega65-core-lgb/src/kickstart_dos.a65:1802
 8BCB  AD 65 BC  LDA   $BC65          | /home/lgb/prog_here/mega65-core-lgb/src/kickstart_dos.a65:1813
 8BCE  29 10     AND   #$10         | /home/lgb/prog_here/mega65-core-lgb/src/kickstart_dos.a65:1814
 8BD0  F0 05     BEQ   $00D7          | /home/lgb/prog_here/mega65-core-lgb/src/kickstart_dos.a65:1815
 8BD2  A9 86     LDA   #$86         | /home/lgb/prog_here/mega65-core-lgb/src/kickstart_dos.a65:1817
 8BD4  4C 99 8A  JMP   $8A99          | /home/lgb/prog_here/mega65-core-lgb/src/kickstart_dos.a65:1818
 8BD7  20 8D 91  JSR   $918D          | /home/lgb/prog_here/mega65-core-lgb/src/kickstart_dos.a65:1824
 8BDA  93 C0 FE  BCC   $8A9C          | /home/lgb/prog_here/mega65-core-lgb/src/kickstart_dos.a65:1825
 8BDD  4C CB 91  JMP   $91CB          | /home/lgb/prog_here/mega65-core-lgb/src/kickstart_dos.a65:1827
 8BE0  20 ED 8B  JSR   $8BED          | /home/lgb/prog_here/mega65-core-lgb/src/kickstart_dos.a65:1836
 8BE3  08        PHP                  | /home/lgb/prog_here/mega65-core-lgb/src/kickstart_dos.a65:1837
 8BE4  20 B7 8B  JSR   $8BB7          | /home/lgb/prog_here/mega65-core-lgb/src/kickstart_dos.a65:1838
 8BE7  28        PLP                  | /home/lgb/prog_here/mega65-core-lgb/src/kickstart_dos.a65:1839
 8BE8  93 B2 FE  BCC   $8A9C          | /home/lgb/prog_here/mega65-core-lgb/src/kickstart_dos.a65:1840
 8BEB  38        SEC                  | /home/lgb/prog_here/mega65-core-lgb/src/kickstart_dos.a65:1841
 8BEC  60        RTS                  | /home/lgb/prog_here/mega65-core-lgb/src/kickstart_dos.a65:1842
 8BED  20 3E 8B  JSR   $8B3E          | /home/lgb/prog_here/mega65-core-lgb/src/kickstart_dos.a65:1852
 8BF0  93 AA FE  BCC   $8A9C          | /home/lgb/prog_here/mega65-core-lgb/src/kickstart_dos.a65:1853
 8BF3  20 10 8C  JSR   $8C10          | /home/lgb/prog_here/mega65-core-lgb/src/kickstart_dos.a65:1855
 8BF6  93 A4 FE  BCC   $8A9C          | /home/lgb/prog_here/mega65-core-lgb/src/kickstart_dos.a65:1856
 8BF9  4C FC 8B  JMP   $8BFC          | /home/lgb/prog_here/mega65-core-lgb/src/kickstart_dos.a65:1860
 8BFC  20 42 8C  JSR   $8C42          | /home/lgb/prog_here/mega65-core-lgb/src/kickstart_dos.a65:1872
 8BFF  B0 08     BCS   $0009          | /home/lgb/prog_here/mega65-core-lgb/src/kickstart_dos.a65:1873
 8C01  20 B7 8B  JSR   $8BB7          | /home/lgb/prog_here/mega65-core-lgb/src/kickstart_dos.a65:1875
 8C04  A9 88     LDA   #$88         | /home/lgb/prog_here/mega65-core-lgb/src/kickstart_dos.a65:1877
 8C06  4C 99 8A  JMP   $8A99          | /home/lgb/prog_here/mega65-core-lgb/src/kickstart_dos.a65:1878
 8C09  20 38 91  JSR   $9138          | /home/lgb/prog_here/mega65-core-lgb/src/kickstart_dos.a65:1884
 8C0C  90 EE     BCC   $00FC          | /home/lgb/prog_here/mega65-core-lgb/src/kickstart_dos.a65:1888
 8C0E  38        SEC                  | /home/lgb/prog_here/mega65-core-lgb/src/kickstart_dos.a65:1894
 8C0F  60        RTS                  | /home/lgb/prog_here/mega65-core-lgb/src/kickstart_dos.a65:1895
 8C10  20 5B 8B  JSR   $8B5B          | /home/lgb/prog_here/mega65-core-lgb/src/kickstart_dos.a65:1903
 8C13  93 87 FE  BCC   $8A9C          | /home/lgb/prog_here/mega65-core-lgb/src/kickstart_dos.a65:1904
 8C16  8A        TXA                  | /home/lgb/prog_here/mega65-core-lgb/src/kickstart_dos.a65:1908
 8C17  0A        ASL                  | /home/lgb/prog_here/mega65-core-lgb/src/kickstart_dos.a65:1909
 8C18  0A        ASL                  | /home/lgb/prog_here/mega65-core-lgb/src/kickstart_dos.a65:1910
 8C19  0A        ASL                  | /home/lgb/prog_here/mega65-core-lgb/src/kickstart_dos.a65:1911
 8C1A  0A        ASL                  | /home/lgb/prog_here/mega65-core-lgb/src/kickstart_dos.a65:1912
 8C1B  A8        TAY                  | /home/lgb/prog_here/mega65-core-lgb/src/kickstart_dos.a65:1913
 8C1C  AD 03 BC  LDA   $BC03          | /home/lgb/prog_here/mega65-core-lgb/src/kickstart_dos.a65:1917
 8C1F  99 B4 BC  STA   $BCB4, Y       | /home/lgb/prog_here/mega65-core-lgb/src/kickstart_dos.a65:1918
 8C22  A2 00     LDX   #$00         | /home/lgb/prog_here/mega65-core-lgb/src/kickstart_dos.a65:1922
 8C24  BD 05 BC  LDA   $BC05, X       | /home/lgb/prog_here/mega65-core-lgb/src/kickstart_dos.a65:1924
 8C27  99 B6 BC  STA   $BCB6, Y       | /home/lgb/prog_here/mega65-core-lgb/src/kickstart_dos.a65:1925
 8C2A  99 BA BC  STA   $BCBA, Y       | /home/lgb/prog_here/mega65-core-lgb/src/kickstart_dos.a65:1926
 8C2D  C8        INY                  | /home/lgb/prog_here/mega65-core-lgb/src/kickstart_dos.a65:1927
 8C2E  E8        INX                  | /home/lgb/prog_here/mega65-core-lgb/src/kickstart_dos.a65:1928
 8C2F  E0 04     CPX   #$04         | /home/lgb/prog_here/mega65-core-lgb/src/kickstart_dos.a65:1929
 8C31  D0 F1     BNE   $0024          | /home/lgb/prog_here/mega65-core-lgb/src/kickstart_dos.a65:1930
 8C33  AE F5 BC  LDX   $BCF5          | /home/lgb/prog_here/mega65-core-lgb/src/kickstart_dos.a65:1934
 8C36  A9 80     LDA   #$80         | /home/lgb/prog_here/mega65-core-lgb/src/kickstart_dos.a65:1935
 8C38  9D B5 BC  STA   $BCB5, X       | /home/lgb/prog_here/mega65-core-lgb/src/kickstart_dos.a65:1936
 8C3B  20 CB 91  JSR   $91CB          | /home/lgb/prog_here/mega65-core-lgb/src/kickstart_dos.a65:1938
 8C3E  93 5C FE  BCC   $8A9C          | /home/lgb/prog_here/mega65-core-lgb/src/kickstart_dos.a65:1939
 8C41  60        RTS                  | /home/lgb/prog_here/mega65-core-lgb/src/kickstart_dos.a65:1940
 8C42  A9 00     LDA   #$00         | /home/lgb/prog_here/mega65-core-lgb/src/kickstart_dos.a65:1956
 8C44  8D 4F BC  STA   $BC4F          | /home/lgb/prog_here/mega65-core-lgb/src/kickstart_dos.a65:1957
 8C47  20 18 92  JSR   $9218          | /home/lgb/prog_here/mega65-core-lgb/src/kickstart_dos.a65:1959
 8C4A  20 4F A6  JSR   $A64F          | /home/lgb/prog_here/mega65-core-lgb/src/kickstart_dos.a65:1963
 8C4D  00 2D 00                                         |.-.             |
 8C50  AC F5 BC  LDY   $BCF5          | /home/lgb/prog_here/mega65-core-lgb/src/kickstart_dos.a65:1966
 8C53  18        CLC                  | /home/lgb/prog_here/mega65-core-lgb/src/kickstart_dos.a65:1967
 8C54  B9 BF BC  LDA   $BCBF, Y       | /home/lgb/prog_here/mega65-core-lgb/src/kickstart_dos.a65:1968
 8C57  AA        TAX                  | /home/lgb/prog_here/mega65-core-lgb/src/kickstart_dos.a65:1970
 8C58  20 3A A7  JSR   $A73A          | /home/lgb/prog_here/mega65-core-lgb/src/kickstart_dos.a65:1971
 8C5B  8C 84 8C  STY   $8C84          | /home/lgb/prog_here/mega65-core-lgb/src/kickstart_dos.a65:1972
 8C5E  8E 85 8C  STX   $8C85          | /home/lgb/prog_here/mega65-core-lgb/src/kickstart_dos.a65:1973
 8C61  AC F5 BC  LDY   $BCF5          | /home/lgb/prog_here/mega65-core-lgb/src/kickstart_dos.a65:1975
 8C64  18        CLC                  | /home/lgb/prog_here/mega65-core-lgb/src/kickstart_dos.a65:1976
 8C65  B9 C0 BC  LDA   $BCC0, Y       | /home/lgb/prog_here/mega65-core-lgb/src/kickstart_dos.a65:1977
 8C68  AA        TAX                  | /home/lgb/prog_here/mega65-core-lgb/src/kickstart_dos.a65:1979
 8C69  20 3A A7  JSR   $A73A          | /home/lgb/prog_here/mega65-core-lgb/src/kickstart_dos.a65:1980
 8C6C  8C 82 8C  STY   $8C82          | /home/lgb/prog_here/mega65-core-lgb/src/kickstart_dos.a65:1981
 8C6F  8E 83 8C  STX   $8C83          | /home/lgb/prog_here/mega65-core-lgb/src/kickstart_dos.a65:1982
 8C72  20 4F A6  JSR   $A64F          | /home/lgb/prog_here/mega65-core-lgb/src/kickstart_dos.a65:1984
 8C75  00 64 6F 73 5F 72 65 61 64 64 69 72 5B 78 78 79  |.dos_readdir[xxy|
 8C85  79 5D 3D 3D 3D 3D 3D 3D 3D 3D 3D 3D 3D 3D 3D 3D  |y]==============|
 8C95  3D 3D 3D 3D 3D 3D 3D 3D 3D 3D 3D 3D 3D 3D 3D 3D  |================|
 8CA5  3D 3D 3D 3D 3D 3D 3D 3D 3D 3D 3D 3D 00           |============.   |
 8CB2  20 55 AF  JSR   $AF55          | /home/lgb/prog_here/mega65-core-lgb/src/kickstart_dos.a65:1988
 8CB5  20 54 AE  JSR   $AE54          | /home/lgb/prog_here/mega65-core-lgb/src/kickstart_dos.a65:1989
 8CB8  AE F5 BC  LDX   $BCF5          | /home/lgb/prog_here/mega65-core-lgb/src/kickstart_dos.a65:1993
 8CBB  BD B5 BC  LDA   $BCB5, X       | /home/lgb/prog_here/mega65-core-lgb/src/kickstart_dos.a65:1994
 8CBE  C9 80     CMP   #$80         | /home/lgb/prog_here/mega65-core-lgb/src/kickstart_dos.a65:1995
 8CC0  F0 0E     BEQ   $00D0          | /home/lgb/prog_here/mega65-core-lgb/src/kickstart_dos.a65:1996
 8CC2  C9 81     CMP   #$81         | /home/lgb/prog_here/mega65-core-lgb/src/kickstart_dos.a65:1997
 8CC4  D0 05     BNE   $00CB          | /home/lgb/prog_here/mega65-core-lgb/src/kickstart_dos.a65:1998
 8CC6  A9 FF     LDA   #$FF         | /home/lgb/prog_here/mega65-core-lgb/src/kickstart_dos.a65:2000
 8CC8  4C 99 8A  JMP   $8A99          | /home/lgb/prog_here/mega65-core-lgb/src/kickstart_dos.a65:2001
 8CCB  A9 87     LDA   #$87         | /home/lgb/prog_here/mega65-core-lgb/src/kickstart_dos.a65:2008
 8CCD  4C 99 8A  JMP   $8A99          | /home/lgb/prog_here/mega65-core-lgb/src/kickstart_dos.a65:2009
 8CD0  A2 54     LDX   #$54         | /home/lgb/prog_here/mega65-core-lgb/src/kickstart_dos.a65:2019
 8CD2  A9 00     LDA   #$00         | /home/lgb/prog_here/mega65-core-lgb/src/kickstart_dos.a65:2020
 8CD4  9D 0F BC  STA   $BC0F, X       | /home/lgb/prog_here/mega65-core-lgb/src/kickstart_dos.a65:2022
 8CD7  CA        DEX                  | /home/lgb/prog_here/mega65-core-lgb/src/kickstart_dos.a65:2023
 8CD8  10 FA     BPL   $00D4          | /home/lgb/prog_here/mega65-core-lgb/src/kickstart_dos.a65:2024
 8CDA  20 18 92  JSR   $9218          | /home/lgb/prog_here/mega65-core-lgb/src/kickstart_dos.a65:2028
 8CDD  93 BD FD  BCC   $8A9C          | /home/lgb/prog_here/mega65-core-lgb/src/kickstart_dos.a65:2029
 8CE0  20 1F 99  JSR   $991F          | /home/lgb/prog_here/mega65-core-lgb/src/kickstart_dos.a65:2031
 8CE3  AD F5 BC  LDA   $BCF5          | /home/lgb/prog_here/mega65-core-lgb/src/kickstart_dos.a65:2039
 8CE6  09 0B     ORA   #$0B         | /home/lgb/prog_here/mega65-core-lgb/src/kickstart_dos.a65:2040
 8CE8  AA        TAX                  | /home/lgb/prog_here/mega65-core-lgb/src/kickstart_dos.a65:2041
 8CE9  BD B4 BC  LDA   $BCB4, X       | /home/lgb/prog_here/mega65-core-lgb/src/kickstart_dos.a65:2042
 8CEC  8D 01 BF  STA   $BF01          | /home/lgb/prog_here/mega65-core-lgb/src/kickstart_dos.a65:2043
 8CEF  BD B5 BC  LDA   $BCB5, X       | /home/lgb/prog_here/mega65-core-lgb/src/kickstart_dos.a65:2044
 8CF2  18        CLC                  | /home/lgb/prog_here/mega65-core-lgb/src/kickstart_dos.a65:2045
 8CF3  69 DE     ADC   #$DE         | /home/lgb/prog_here/mega65-core-lgb/src/kickstart_dos.a65:2046
 8CF5  8D 02 BF  STA   $BF02          | /home/lgb/prog_here/mega65-core-lgb/src/kickstart_dos.a65:2047
 8CF8  DA        PHX                  | /home/lgb/prog_here/mega65-core-lgb/src/kickstart_dos.a65:2051
 8CF9  A0 00     LDY   #$00         | /home/lgb/prog_here/mega65-core-lgb/src/kickstart_dos.a65:2055
 8CFB  A2 00     LDX   #$00         | /home/lgb/prog_here/mega65-core-lgb/src/kickstart_dos.a65:2056
 8CFD  B1 01     LDA   ($01), Y     | /home/lgb/prog_here/mega65-core-lgb/src/kickstart_dos.a65:2058
 8CFF  20 44 96  JSR   $9644          | /home/lgb/prog_here/mega65-core-lgb/src/kickstart_dos.a65:2059
 8D02  9D 47 8D  STA   $8D47, X       | /home/lgb/prog_here/mega65-core-lgb/src/kickstart_dos.a65:2060
 8D05  C8        INY                  | /home/lgb/prog_here/mega65-core-lgb/src/kickstart_dos.a65:2061
 8D06  E8        INX                  | /home/lgb/prog_here/mega65-core-lgb/src/kickstart_dos.a65:2062
 8D07  E0 0B     CPX   #$0B         | /home/lgb/prog_here/mega65-core-lgb/src/kickstart_dos.a65:2063
 8D09  D0 F2     BNE   $00FD          | /home/lgb/prog_here/mega65-core-lgb/src/kickstart_dos.a65:2064
 8D0B  A0 0B     LDY   #$0B         | /home/lgb/prog_here/mega65-core-lgb/src/kickstart_dos.a65:2068
 8D0D  B1 01     LDA   ($01), Y     | /home/lgb/prog_here/mega65-core-lgb/src/kickstart_dos.a65:2069
 8D0F  AA        TAX                  | /home/lgb/prog_here/mega65-core-lgb/src/kickstart_dos.a65:2070
 8D10  20 3A A7  JSR   $A73A          | /home/lgb/prog_here/mega65-core-lgb/src/kickstart_dos.a65:2071
 8D13  8C 53 8D  STY   $8D53          | /home/lgb/prog_here/mega65-core-lgb/src/kickstart_dos.a65:2072
 8D16  8E 54 8D  STX   $8D54          | /home/lgb/prog_here/mega65-core-lgb/src/kickstart_dos.a65:2073
 8D19  A0 00     LDY   #$00         | /home/lgb/prog_here/mega65-core-lgb/src/kickstart_dos.a65:2077
 8D1B  B1 01     LDA   ($01), Y     | /home/lgb/prog_here/mega65-core-lgb/src/kickstart_dos.a65:2078
 8D1D  AA        TAX                  | /home/lgb/prog_here/mega65-core-lgb/src/kickstart_dos.a65:2079
 8D1E  20 3A A7  JSR   $A73A          | /home/lgb/prog_here/mega65-core-lgb/src/kickstart_dos.a65:2080
 8D21  8C 56 8D  STY   $8D56          | /home/lgb/prog_here/mega65-core-lgb/src/kickstart_dos.a65:2081
 8D24  8E 57 8D  STX   $8D57          | /home/lgb/prog_here/mega65-core-lgb/src/kickstart_dos.a65:2082
 8D27  20 4F A6  JSR   $A64F          | /home/lgb/prog_here/mega65-core-lgb/src/kickstart_dos.a65:2086
 8D2A  00 20 28 38 2E 33 29 2B 28 41 54 54 52 49 42 29  |. (8.3)+(ATTRIB)|
 8D3A  2B 28 4E 41 4D 45 5B 30 5D 29 20 3D 20 46 49 4C  |+(NAME[0]) = FIL|
 8D4A  45 4E 41 4D 45 45 58 54 20 78 78 20 78 78 00     |ENAMEEXT xx xx. |
 8D59  FA        PLX                  | /home/lgb/prog_here/mega65-core-lgb/src/kickstart_dos.a65:2092
 8D5A  A0 00     LDY   #$00         | /home/lgb/prog_here/mega65-core-lgb/src/kickstart_dos.a65:2098
 8D5C  B1 01     LDA   ($01), Y     | /home/lgb/prog_here/mega65-core-lgb/src/kickstart_dos.a65:2099
 8D5E  C9 00     CMP   #$00         | /home/lgb/prog_here/mega65-core-lgb/src/kickstart_dos.a65:2100
 8D60  F3 C7 01  BEQ   $8F29          | /home/lgb/prog_here/mega65-core-lgb/src/kickstart_dos.a65:2101
 8D63  C9 E5     CMP   #$E5         | /home/lgb/prog_here/mega65-core-lgb/src/kickstart_dos.a65:2104
 8D65  F3 95 03  BEQ   $90FC          | /home/lgb/prog_here/mega65-core-lgb/src/kickstart_dos.a65:2105
 8D68  A0 0B     LDY   #$0B         | /home/lgb/prog_here/mega65-core-lgb/src/kickstart_dos.a65:2109
 8D6A  B1 01     LDA   ($01), Y     | /home/lgb/prog_here/mega65-core-lgb/src/kickstart_dos.a65:2110
 8D6C  A8        TAY                  | /home/lgb/prog_here/mega65-core-lgb/src/kickstart_dos.a65:2120
 8D6D  29 0F     AND   #$0F         | /home/lgb/prog_here/mega65-core-lgb/src/kickstart_dos.a65:2125
 8D6F  C9 0F     CMP   #$0F         | /home/lgb/prog_here/mega65-core-lgb/src/kickstart_dos.a65:2126
 8D71  D0 03     BNE   $0076          | /home/lgb/prog_here/mega65-core-lgb/src/kickstart_dos.a65:2127
 8D73  4C 17 8E  JMP   $8E17          | /home/lgb/prog_here/mega65-core-lgb/src/kickstart_dos.a65:2128
 8D76  98        TYA                  | /home/lgb/prog_here/mega65-core-lgb/src/kickstart_dos.a65:2131
 8D77  29 10     AND   #$10         | /home/lgb/prog_here/mega65-core-lgb/src/kickstart_dos.a65:2136
 8D79  C9 10     CMP   #$10         | /home/lgb/prog_here/mega65-core-lgb/src/kickstart_dos.a65:2137
 8D7B  D0 03     BNE   $0080          | /home/lgb/prog_here/mega65-core-lgb/src/kickstart_dos.a65:2138
 8D7D  4C ED 8D  JMP   $8DED          | /home/lgb/prog_here/mega65-core-lgb/src/kickstart_dos.a65:2139
 8D80  98        TYA                  | /home/lgb/prog_here/mega65-core-lgb/src/kickstart_dos.a65:2142
 8D81  29 08     AND   #$08         | /home/lgb/prog_here/mega65-core-lgb/src/kickstart_dos.a65:2147
 8D83  C9 08     CMP   #$08         | /home/lgb/prog_here/mega65-core-lgb/src/kickstart_dos.a65:2148
 8D85  D0 03     BNE   $008A          | /home/lgb/prog_here/mega65-core-lgb/src/kickstart_dos.a65:2149
 8D87  4C C3 8D  JMP   $8DC3          | /home/lgb/prog_here/mega65-core-lgb/src/kickstart_dos.a65:2150
 8D8A  98        TYA                  | /home/lgb/prog_here/mega65-core-lgb/src/kickstart_dos.a65:2153
 8D8B  29 06     AND   #$06         | /home/lgb/prog_here/mega65-core-lgb/src/kickstart_dos.a65:2158
 8D8D  F0 03     BEQ   $0092          | /home/lgb/prog_here/mega65-core-lgb/src/kickstart_dos.a65:2159
 8D8F  4C 95 8D  JMP   $8D95          | /home/lgb/prog_here/mega65-core-lgb/src/kickstart_dos.a65:2160
 8D92  4C 53 8F  JMP   $8F53          | /home/lgb/prog_here/mega65-core-lgb/src/kickstart_dos.a65:2167
 8D95  20 4F A6  JSR   $A64F          | /home/lgb/prog_here/mega65-core-lgb/src/kickstart_dos.a65:2173
 8D98  00 20 69 73 20 68 69 64 64 65 6E 2F 73 79 73 74  |. is hidden/syst|
 8DA8  65 6D 2C 20 73 6F 20 73 6B 69 70 20 74 68 69 73  |em, so skip this|
 8DB8  20 72 65 63 6F 72 64 00                          | record.        |
 8DC0  4C 4A 8F  JMP   $8F4A          | /home/lgb/prog_here/mega65-core-lgb/src/kickstart_dos.a65:2176
 8DC3  20 4F A6  JSR   $A64F          | /home/lgb/prog_here/mega65-core-lgb/src/kickstart_dos.a65:2182
 8DC6  00 20 69 73 20 56 6F 6C 75 6D 65 20 49 44 2C 20  |. is Volume ID, |
 8DD6  73 6F 20 73 6B 69 70 20 74 68 69 73 20 72 65 63  |so skip this rec|
 8DE6  6F 72 64 00                                      |ord.            |
 8DEA  4C 4A 8F  JMP   $8F4A          | /home/lgb/prog_here/mega65-core-lgb/src/kickstart_dos.a65:2185
 8DED  20 4F A6  JSR   $A64F          | /home/lgb/prog_here/mega65-core-lgb/src/kickstart_dos.a65:2191
 8DF0  00 20 69 73 20 44 69 72 65 63 74 6F 72 79 2C 20  |. is Directory, |
 8E00  73 6F 20 73 6B 69 70 20 74 68 69 73 20 72 65 63  |so skip this rec|
 8E10  6F 72 64 00                                      |ord.            |
 8E14  4C 4A 8F  JMP   $8F4A          | /home/lgb/prog_here/mega65-core-lgb/src/kickstart_dos.a65:2194
 8E17  20 4F A6  JSR   $A64F          | /home/lgb/prog_here/mega65-core-lgb/src/kickstart_dos.a65:2200
 8E1A  00 20 69 73 20 4C 46 4E 2C 20 73 6F 20 73 6B 69  |. is LFN, so ski|
 8E2A  70 20 74 68 69 73 20 72 65 63 6F 72 64 00        |p this record.  |
 8E38  4C 4A 8F  JMP   $8F4A          | /home/lgb/prog_here/mega65-core-lgb/src/kickstart_dos.a65:2203
 8E3B  A0 0C     LDY   #$0C         | /home/lgb/prog_here/mega65-core-lgb/src/kickstart_dos.a65:2207
 8E3D  B1 01     LDA   ($01), Y     | /home/lgb/prog_here/mega65-core-lgb/src/kickstart_dos.a65:2208
 8E3F  D3 12 01  BNE   $8F53          | /home/lgb/prog_here/mega65-core-lgb/src/kickstart_dos.a65:2209
 8E42  A0 00     LDY   #$00         | /home/lgb/prog_here/mega65-core-lgb/src/kickstart_dos.a65:2224
 8E44  B1 01     LDA   ($01), Y     | /home/lgb/prog_here/mega65-core-lgb/src/kickstart_dos.a65:2225
 8E46  29 3F     AND   #$3F         | /home/lgb/prog_here/mega65-core-lgb/src/kickstart_dos.a65:2226
 8E48  3A        DEC                  | /home/lgb/prog_here/mega65-core-lgb/src/kickstart_dos.a65:2227
 8E49  C9 05     CMP   #$05         | /home/lgb/prog_here/mega65-core-lgb/src/kickstart_dos.a65:2232
 8E4B  B3 9D 00  BCS   $8EEA          | /home/lgb/prog_here/mega65-core-lgb/src/kickstart_dos.a65:2233
 8E4E  AA        TAX                  | /home/lgb/prog_here/mega65-core-lgb/src/kickstart_dos.a65:2234
 8E4F  BD 33 91  LDA   $9133, X       | /home/lgb/prog_here/mega65-core-lgb/src/kickstart_dos.a65:2235
 8E52  AA        TAX                  | /home/lgb/prog_here/mega65-core-lgb/src/kickstart_dos.a65:2236
 8E53  20 4F A6  JSR   $A64F          | /home/lgb/prog_here/mega65-core-lgb/src/kickstart_dos.a65:2238
 8E56  00 20 66 6F 75 6E 64 20 4C 46 4E 20 70 69 65 63  |. found LFN piec|
 8E66  65 20 3C 73 74 61 72 74 3E 00                    |e <start>.      |
 8E70  A0 01     LDY   #$01         | /home/lgb/prog_here/mega65-core-lgb/src/kickstart_dos.a65:2243
 8E72  A3 05     LDZ   #$05         | /home/lgb/prog_here/mega65-core-lgb/src/kickstart_dos.a65:2244
 8E74  B1 01     LDA   ($01), Y     | /home/lgb/prog_here/mega65-core-lgb/src/kickstart_dos.a65:2245
 8E76  F0 40     BEQ   $00B8          | /home/lgb/prog_here/mega65-core-lgb/src/kickstart_dos.a65:2246
 8E78  9D 0F BC  STA   $BC0F, X       | /home/lgb/prog_here/mega65-core-lgb/src/kickstart_dos.a65:2247
 8E7B  8E 4F BC  STX   $BC4F          | /home/lgb/prog_here/mega65-core-lgb/src/kickstart_dos.a65:2248
 8E7E  E8        INX                  | /home/lgb/prog_here/mega65-core-lgb/src/kickstart_dos.a65:2249
 8E7F  E0 40     CPX   #$40         | /home/lgb/prog_here/mega65-core-lgb/src/kickstart_dos.a65:2251
 8E81  F0 35     BEQ   $00B8          | /home/lgb/prog_here/mega65-core-lgb/src/kickstart_dos.a65:2252
 8E83  C8        INY                  | /home/lgb/prog_here/mega65-core-lgb/src/kickstart_dos.a65:2253
 8E84  C8        INY                  | /home/lgb/prog_here/mega65-core-lgb/src/kickstart_dos.a65:2254
 8E85  3B        DEZ                  | /home/lgb/prog_here/mega65-core-lgb/src/kickstart_dos.a65:2255
 8E86  D0 EC     BNE   $0074          | /home/lgb/prog_here/mega65-core-lgb/src/kickstart_dos.a65:2256
 8E88  A0 0E     LDY   #$0E         | /home/lgb/prog_here/mega65-core-lgb/src/kickstart_dos.a65:2260
 8E8A  A3 06     LDZ   #$06         | /home/lgb/prog_here/mega65-core-lgb/src/kickstart_dos.a65:2261
 8E8C  B1 01     LDA   ($01), Y     | /home/lgb/prog_here/mega65-core-lgb/src/kickstart_dos.a65:2262
 8E8E  F0 28     BEQ   $00B8          | /home/lgb/prog_here/mega65-core-lgb/src/kickstart_dos.a65:2263
 8E90  9D 0F BC  STA   $BC0F, X       | /home/lgb/prog_here/mega65-core-lgb/src/kickstart_dos.a65:2264
 8E93  8E 4F BC  STX   $BC4F          | /home/lgb/prog_here/mega65-core-lgb/src/kickstart_dos.a65:2265
 8E96  E8        INX                  | /home/lgb/prog_here/mega65-core-lgb/src/kickstart_dos.a65:2266
 8E97  E0 40     CPX   #$40         | /home/lgb/prog_here/mega65-core-lgb/src/kickstart_dos.a65:2268
 8E99  F0 1D     BEQ   $00B8          | /home/lgb/prog_here/mega65-core-lgb/src/kickstart_dos.a65:2269
 8E9B  C8        INY                  | /home/lgb/prog_here/mega65-core-lgb/src/kickstart_dos.a65:2270
 8E9C  C8        INY                  | /home/lgb/prog_here/mega65-core-lgb/src/kickstart_dos.a65:2271
 8E9D  3B        DEZ                  | /home/lgb/prog_here/mega65-core-lgb/src/kickstart_dos.a65:2272
 8E9E  D0 EC     BNE   $008C          | /home/lgb/prog_here/mega65-core-lgb/src/kickstart_dos.a65:2273
 8EA0  A0 1C     LDY   #$1C         | /home/lgb/prog_here/mega65-core-lgb/src/kickstart_dos.a65:2277
 8EA2  A3 02     LDZ   #$02         | /home/lgb/prog_here/mega65-core-lgb/src/kickstart_dos.a65:2278
 8EA4  B1 01     LDA   ($01), Y     | /home/lgb/prog_here/mega65-core-lgb/src/kickstart_dos.a65:2279
 8EA6  F0 10     BEQ   $00B8          | /home/lgb/prog_here/mega65-core-lgb/src/kickstart_dos.a65:2280
 8EA8  9D 0F BC  STA   $BC0F, X       | /home/lgb/prog_here/mega65-core-lgb/src/kickstart_dos.a65:2281
 8EAB  8E 4F BC  STX   $BC4F          | /home/lgb/prog_here/mega65-core-lgb/src/kickstart_dos.a65:2282
 8EAE  E8        INX                  | /home/lgb/prog_here/mega65-core-lgb/src/kickstart_dos.a65:2283
 8EAF  E0 40     CPX   #$40         | /home/lgb/prog_here/mega65-core-lgb/src/kickstart_dos.a65:2285
 8EB1  F0 05     BEQ   $00B8          | /home/lgb/prog_here/mega65-core-lgb/src/kickstart_dos.a65:2286
 8EB3  C8        INY                  | /home/lgb/prog_here/mega65-core-lgb/src/kickstart_dos.a65:2287
 8EB4  C8        INY                  | /home/lgb/prog_here/mega65-core-lgb/src/kickstart_dos.a65:2288
 8EB5  3B        DEZ                  | /home/lgb/prog_here/mega65-core-lgb/src/kickstart_dos.a65:2289
 8EB6  D0 EC     BNE   $00A4          | /home/lgb/prog_here/mega65-core-lgb/src/kickstart_dos.a65:2290
 8EB8  20 4F A6  JSR   $A64F          | /home/lgb/prog_here/mega65-core-lgb/src/kickstart_dos.a65:2294
 8EBB  00 42 47 4F 4B 20 64 72 63 65 5F 65 6F 74 5F 69  |.BGOK drce_eot_i|
 8ECB  6E 5F 66 69 6C 65 6E 61 6D 65 00                 |n_filename.     |
 8ED6  EC 4F BC  CPX   $BC4F          | /home/lgb/prog_here/mega65-core-lgb/src/kickstart_dos.a65:2299
 8ED9  90 0F     BCC   $00EA          | /home/lgb/prog_here/mega65-core-lgb/src/kickstart_dos.a65:2300
 8EDB  8E 4F BC  STX   $BC4F          | /home/lgb/prog_here/mega65-core-lgb/src/kickstart_dos.a65:2301
 8EDE  E0 3F     CPX   #$3F         | /home/lgb/prog_here/mega65-core-lgb/src/kickstart_dos.a65:2302
 8EE0  B0 08     BCS   $00EA          | /home/lgb/prog_here/mega65-core-lgb/src/kickstart_dos.a65:2303
 8EE2  A9 00     LDA   #$00         | /home/lgb/prog_here/mega65-core-lgb/src/kickstart_dos.a65:2307
 8EE4  9D 0F BC  STA   $BC0F, X       | /home/lgb/prog_here/mega65-core-lgb/src/kickstart_dos.a65:2308
 8EE7  8E 4F BC  STX   $BC4F          | /home/lgb/prog_here/mega65-core-lgb/src/kickstart_dos.a65:2309
 8EEA  20 4F A6  JSR   $A64F          | /home/lgb/prog_here/mega65-core-lgb/src/kickstart_dos.a65:2317
 8EED  00 42 47 4F 4B 20 64 72 63 65 5F 69 67 6E 6F 72  |.BGOK drce_ignor|
 8EFD  65 5F 6C 66 6E 5F 70 69 65 63 65 00              |e_lfn_piece.    |
 8F09  20 4F A6  JSR   $A64F          | /home/lgb/prog_here/mega65-core-lgb/src/kickstart_dos.a65:2326
 8F0C  00 42 47 4F 4B 20 64 72 63 65 5F 63 6F 6E 74 5F  |.BGOK drce_cont_|
 8F1C  6E 65 78 74 00                                   |next.           |
 8F21  20 69 91  JSR   $9169          | /home/lgb/prog_here/mega65-core-lgb/src/kickstart_dos.a65:2329
 8F24  90 03     BCC   $0029          | /home/lgb/prog_here/mega65-core-lgb/src/kickstart_dos.a65:2330
 8F26  4C E3 8C  JMP   $8CE3          | /home/lgb/prog_here/mega65-core-lgb/src/kickstart_dos.a65:2332
 8F29  20 4F A6  JSR   $A64F          | /home/lgb/prog_here/mega65-core-lgb/src/kickstart_dos.a65:2346
 8F2C  00 20 46 4F 55 4E 44 20 45 4E 44 5F 4F 46 5F 44  |. FOUND END_OF_D|
 8F3C  49 52 45 43 54 4F 52 59 00                       |IRECTORY.       |
 8F45  A9 FF     LDA   #$FF         | /home/lgb/prog_here/mega65-core-lgb/src/kickstart_dos.a65:2349
 8F47  4C 99 8A  JMP   $8A99          | /home/lgb/prog_here/mega65-core-lgb/src/kickstart_dos.a65:2350
 8F4A  20 69 91  JSR   $9169          | /home/lgb/prog_here/mega65-core-lgb/src/kickstart_dos.a65:2357
 8F4D  B3 F3 FC  BCS   $8C42          | /home/lgb/prog_here/mega65-core-lgb/src/kickstart_dos.a65:2358
 8F50  4C 9C 8A  JMP   $8A9C          | /home/lgb/prog_here/mega65-core-lgb/src/kickstart_dos.a65:2359
 8F53  20 4F A6  JSR   $A64F          | /home/lgb/prog_here/mega65-core-lgb/src/kickstart_dos.a65:2367
 8F56  00 20 70 72 6F 63 65 73 73 69 6E 67 20 53 48 4F  |. processing SHO|
 8F66  52 54 2D 6E 61 6D 65 00                          |RT-name.        |
 8F6E  A0 00     LDY   #$00         | /home/lgb/prog_here/mega65-core-lgb/src/kickstart_dos.a65:2372
 8F70  A2 00     LDX   #$00         | /home/lgb/prog_here/mega65-core-lgb/src/kickstart_dos.a65:2383
 8F72  B1 01     LDA   ($01), Y     | /home/lgb/prog_here/mega65-core-lgb/src/kickstart_dos.a65:2384
 8F74  9D 50 BC  STA   $BC50, X       | /home/lgb/prog_here/mega65-core-lgb/src/kickstart_dos.a65:2385
 8F77  E8        INX                  | /home/lgb/prog_here/mega65-core-lgb/src/kickstart_dos.a65:2386
 8F78  C8        INY                  | /home/lgb/prog_here/mega65-core-lgb/src/kickstart_dos.a65:2387
 8F79  E0 0B     CPX   #$0B         | /home/lgb/prog_here/mega65-core-lgb/src/kickstart_dos.a65:2388
 8F7B  D0 F5     BNE   $0072          | /home/lgb/prog_here/mega65-core-lgb/src/kickstart_dos.a65:2389
 8F7D  AD 4F BC  LDA   $BC4F          | /home/lgb/prog_here/mega65-core-lgb/src/kickstart_dos.a65:2394
 8F80  D0 44     BNE   $00C6          | /home/lgb/prog_here/mega65-core-lgb/src/kickstart_dos.a65:2395
 8F82  A0 00     LDY   #$00         | /home/lgb/prog_here/mega65-core-lgb/src/kickstart_dos.a65:2399
 8F84  A2 00     LDX   #$00         | /home/lgb/prog_here/mega65-core-lgb/src/kickstart_dos.a65:2400
 8F86  B1 01     LDA   ($01), Y     | /home/lgb/prog_here/mega65-core-lgb/src/kickstart_dos.a65:2401
 8F88  9D 0F BC  STA   $BC0F, X       | /home/lgb/prog_here/mega65-core-lgb/src/kickstart_dos.a65:2402
 8F8B  8E 4F BC  STX   $BC4F          | /home/lgb/prog_here/mega65-core-lgb/src/kickstart_dos.a65:2403
 8F8E  E8        INX                  | /home/lgb/prog_here/mega65-core-lgb/src/kickstart_dos.a65:2404
 8F8F  C8        INY                  | /home/lgb/prog_here/mega65-core-lgb/src/kickstart_dos.a65:2405
 8F90  C9 20     CMP   #$20         | /home/lgb/prog_here/mega65-core-lgb/src/kickstart_dos.a65:2406
 8F92  F0 05     BEQ   $0099          | /home/lgb/prog_here/mega65-core-lgb/src/kickstart_dos.a65:2407
 8F94  E0 08     CPX   #$08         | /home/lgb/prog_here/mega65-core-lgb/src/kickstart_dos.a65:2408
 8F96  D0 EE     BNE   $0086          | /home/lgb/prog_here/mega65-core-lgb/src/kickstart_dos.a65:2409
 8F98  E8        INX                  | /home/lgb/prog_here/mega65-core-lgb/src/kickstart_dos.a65:2410
 8F99  CA        DEX                  | /home/lgb/prog_here/mega65-core-lgb/src/kickstart_dos.a65:2413
 8F9A  A9 2E     LDA   #$2E         | /home/lgb/prog_here/mega65-core-lgb/src/kickstart_dos.a65:2414
 8F9C  9D 0F BC  STA   $BC0F, X       | /home/lgb/prog_here/mega65-core-lgb/src/kickstart_dos.a65:2415
 8F9F  8E 4F BC  STX   $BC4F          | /home/lgb/prog_here/mega65-core-lgb/src/kickstart_dos.a65:2416
 8FA2  E8        INX                  | /home/lgb/prog_here/mega65-core-lgb/src/kickstart_dos.a65:2417
 8FA3  A0 08     LDY   #$08         | /home/lgb/prog_here/mega65-core-lgb/src/kickstart_dos.a65:2421
 8FA5  A3 00     LDZ   #$00         | /home/lgb/prog_here/mega65-core-lgb/src/kickstart_dos.a65:2422
 8FA7  B1 01     LDA   ($01), Y     | /home/lgb/prog_here/mega65-core-lgb/src/kickstart_dos.a65:2423
 8FA9  9D 0F BC  STA   $BC0F, X       | /home/lgb/prog_here/mega65-core-lgb/src/kickstart_dos.a65:2424
 8FAC  8E 4F BC  STX   $BC4F          | /home/lgb/prog_here/mega65-core-lgb/src/kickstart_dos.a65:2425
 8FAF  E8        INX                  | /home/lgb/prog_here/mega65-core-lgb/src/kickstart_dos.a65:2426
 8FB0  C8        INY                  | /home/lgb/prog_here/mega65-core-lgb/src/kickstart_dos.a65:2427
 8FB1  1B        INZ                  | /home/lgb/prog_here/mega65-core-lgb/src/kickstart_dos.a65:2428
 8FB2  C2 03     CPZ   #$03         | /home/lgb/prog_here/mega65-core-lgb/src/kickstart_dos.a65:2429
 8FB4  F0 08     BEQ   $00BE          | /home/lgb/prog_here/mega65-core-lgb/src/kickstart_dos.a65:2430
 8FB6  C9 20     CMP   #$20         | /home/lgb/prog_here/mega65-core-lgb/src/kickstart_dos.a65:2434
 8FB8  F0 04     BEQ   $00BE          | /home/lgb/prog_here/mega65-core-lgb/src/kickstart_dos.a65:2435
 8FBA  E0 0C     CPX   #$0C         | /home/lgb/prog_here/mega65-core-lgb/src/kickstart_dos.a65:2436
 8FBC  D0 E9     BNE   $00A7          | /home/lgb/prog_here/mega65-core-lgb/src/kickstart_dos.a65:2437
 8FBE  A9 00     LDA   #$00         | /home/lgb/prog_here/mega65-core-lgb/src/kickstart_dos.a65:2443
 8FC0  9D 0F BC  STA   $BC0F, X       | /home/lgb/prog_here/mega65-core-lgb/src/kickstart_dos.a65:2444
 8FC3  8E 4F BC  STX   $BC4F          | /home/lgb/prog_here/mega65-core-lgb/src/kickstart_dos.a65:2447
 8FC6  A0 1A     LDY   #$1A         | /home/lgb/prog_here/mega65-core-lgb/src/kickstart_dos.a65:2457
 8FC8  B1 01     LDA   ($01), Y     | /home/lgb/prog_here/mega65-core-lgb/src/kickstart_dos.a65:2458
 8FCA  8D 5D BC  STA   $BC5D          | /home/lgb/prog_here/mega65-core-lgb/src/kickstart_dos.a65:2459
 8FCD  C8        INY                  | /home/lgb/prog_here/mega65-core-lgb/src/kickstart_dos.a65:2460
 8FCE  B1 01     LDA   ($01), Y     | /home/lgb/prog_here/mega65-core-lgb/src/kickstart_dos.a65:2461
 8FD0  8D 5E BC  STA   $BC5E          | /home/lgb/prog_here/mega65-core-lgb/src/kickstart_dos.a65:2462
 8FD3  A0 14     LDY   #$14         | /home/lgb/prog_here/mega65-core-lgb/src/kickstart_dos.a65:2464
 8FD5  B1 01     LDA   ($01), Y     | /home/lgb/prog_here/mega65-core-lgb/src/kickstart_dos.a65:2465
 8FD7  8D 5F BC  STA   $BC5F          | /home/lgb/prog_here/mega65-core-lgb/src/kickstart_dos.a65:2466
 8FDA  C8        INY                  | /home/lgb/prog_here/mega65-core-lgb/src/kickstart_dos.a65:2467
 8FDB  B1 01     LDA   ($01), Y     | /home/lgb/prog_here/mega65-core-lgb/src/kickstart_dos.a65:2468
 8FDD  8D 60 BC  STA   $BC60          | /home/lgb/prog_here/mega65-core-lgb/src/kickstart_dos.a65:2469
 8FE0  A0 1C     LDY   #$1C         | /home/lgb/prog_here/mega65-core-lgb/src/kickstart_dos.a65:2474
 8FE2  A2 00     LDX   #$00         | /home/lgb/prog_here/mega65-core-lgb/src/kickstart_dos.a65:2475
 8FE4  B1 01     LDA   ($01), Y     | /home/lgb/prog_here/mega65-core-lgb/src/kickstart_dos.a65:2477
 8FE6  9D 61 BC  STA   $BC61, X       | /home/lgb/prog_here/mega65-core-lgb/src/kickstart_dos.a65:2478
 8FE9  C8        INY                  | /home/lgb/prog_here/mega65-core-lgb/src/kickstart_dos.a65:2479
 8FEA  E8        INX                  | /home/lgb/prog_here/mega65-core-lgb/src/kickstart_dos.a65:2480
 8FEB  E0 04     CPX   #$04         | /home/lgb/prog_here/mega65-core-lgb/src/kickstart_dos.a65:2481
 8FED  D0 F5     BNE   $00E4          | /home/lgb/prog_here/mega65-core-lgb/src/kickstart_dos.a65:2482
 8FEF  A0 0B     LDY   #$0B         | /home/lgb/prog_here/mega65-core-lgb/src/kickstart_dos.a65:2486
 8FF1  B1 01     LDA   ($01), Y     | /home/lgb/prog_here/mega65-core-lgb/src/kickstart_dos.a65:2487
 8FF3  8D 65 BC  STA   $BC65          | /home/lgb/prog_here/mega65-core-lgb/src/kickstart_dos.a65:2488
 8FF6  20 4F A6  JSR   $A64F          | /home/lgb/prog_here/mega65-core-lgb/src/kickstart_dos.a65:2490
 8FF9  00 20 64 72 63 65 5F 66 6C 20 70 6F 70 75 6C 61  |. drce_fl popula|
 9009  74 65 64 20 66 69 65 6C 64 73 00                 |ted fields.     |
 9014  20 69 91  JSR   $9169          | /home/lgb/prog_here/mega65-core-lgb/src/kickstart_dos.a65:2493
 9017  B0 2B     BCS   $0044          | /home/lgb/prog_here/mega65-core-lgb/src/kickstart_dos.a65:2494
 9019  20 4F A6  JSR   $A64F          | /home/lgb/prog_here/mega65-core-lgb/src/kickstart_dos.a65:2498
 901C  00 20 44 45 42 55 47 20 64 72 63 65 5F 69 73 5F  |. DEBUG drce_is_|
 902C  65 6F 66 20 3C 21 3E 00                          |eof <!>.        |
 9034  AE F5 BC  LDX   $BCF5          | /home/lgb/prog_here/mega65-core-lgb/src/kickstart_dos.a65:2506
 9037  A9 81     LDA   #$81         | /home/lgb/prog_here/mega65-core-lgb/src/kickstart_dos.a65:2507
 9039  9D B5 BC  STA   $BCB5, X       | /home/lgb/prog_here/mega65-core-lgb/src/kickstart_dos.a65:2508
 903C  AE F5 BC  LDX   $BCF5          | /home/lgb/prog_here/mega65-core-lgb/src/kickstart_dos.a65:2510
 903F  BD B5 BC  LDA   $BCB5, X       | /home/lgb/prog_here/mega65-core-lgb/src/kickstart_dos.a65:2511
 9042  38        SEC                  | /home/lgb/prog_here/mega65-core-lgb/src/kickstart_dos.a65:2513
 9043  60        RTS                  | /home/lgb/prog_here/mega65-core-lgb/src/kickstart_dos.a65:2514
 9044  20 4F A6  JSR   $A64F          | /home/lgb/prog_here/mega65-core-lgb/src/kickstart_dos.a65:2518
 9047  00 20 64 72 63 65 5F 6E 6F 74 5F 65 6F 66 20 43  |. drce_not_eof C|
 9057  48 45 43 4B 3C 31 2F 33 3E 00                    |HECK<1/3>.      |
 9061  AD 4F BC  LDA   $BC4F          | /home/lgb/prog_here/mega65-core-lgb/src/kickstart_dos.a65:2523
 9064  C9 00     CMP   #$00         | /home/lgb/prog_here/mega65-core-lgb/src/kickstart_dos.a65:2524
 9066  F3 DA FB  BEQ   $8C42          | /home/lgb/prog_here/mega65-core-lgb/src/kickstart_dos.a65:2525
 9069  20 4F A6  JSR   $A64F          | /home/lgb/prog_here/mega65-core-lgb/src/kickstart_dos.a65:2527
 906C  00 20 64 72 63 65 5F 6E 6F 74 5F 65 6F 66 20 43  |. drce_not_eof C|
 907C  48 45 43 4B 3C 32 2F 33 3E 00                    |HECK<2/3>.      |
 9086  AD 50 BC  LDA   $BC50          | /home/lgb/prog_here/mega65-core-lgb/src/kickstart_dos.a65:2530
 9089  F3 B7 FB  BEQ   $8C42          | /home/lgb/prog_here/mega65-core-lgb/src/kickstart_dos.a65:2531
 908C  C9 20     CMP   #$20         | /home/lgb/prog_here/mega65-core-lgb/src/kickstart_dos.a65:2532
 908E  F3 B2 FB  BEQ   $8C42          | /home/lgb/prog_here/mega65-core-lgb/src/kickstart_dos.a65:2533
 9091  20 4F A6  JSR   $A64F          | /home/lgb/prog_here/mega65-core-lgb/src/kickstart_dos.a65:2535
 9094  00 20 64 72 63 65 5F 6E 6F 74 5F 65 6F 66 20 43  |. drce_not_eof C|
 90A4  48 45 43 4B 3C 33 2F 33 3E 00                    |HECK<3/3>.      |
 90AE  AE 4F BC  LDX   $BC4F          | /home/lgb/prog_here/mega65-core-lgb/src/kickstart_dos.a65:2538
 90B1  20 B6 90  JSR   $90B6          | /home/lgb/prog_here/mega65-core-lgb/src/kickstart_dos.a65:2539
 90B4  38        SEC                  | /home/lgb/prog_here/mega65-core-lgb/src/kickstart_dos.a65:2541
 90B5  60        RTS                  | /home/lgb/prog_here/mega65-core-lgb/src/kickstart_dos.a65:2542
 90B6  20 3A A7  JSR   $A73A          | /home/lgb/prog_here/mega65-core-lgb/src/kickstart_dos.a65:2550
 90B9  8C D7 90  STY   $90D7          | /home/lgb/prog_here/mega65-core-lgb/src/kickstart_dos.a65:2551
 90BC  8E D8 90  STX   $90D8          | /home/lgb/prog_here/mega65-core-lgb/src/kickstart_dos.a65:2552
 90BF  DA        PHX                  | /home/lgb/prog_here/mega65-core-lgb/src/kickstart_dos.a65:2556
 90C0  A2 1D     LDX   #$1D         | /home/lgb/prog_here/mega65-core-lgb/src/kickstart_dos.a65:2558
 90C2  BD 0F BC  LDA   $BC0F, X       | /home/lgb/prog_here/mega65-core-lgb/src/kickstart_dos.a65:2559
 90C5  20 44 96  JSR   $9644          | /home/lgb/prog_here/mega65-core-lgb/src/kickstart_dos.a65:2560
 90C8  9D DC 90  STA   $90DC, X       | /home/lgb/prog_here/mega65-core-lgb/src/kickstart_dos.a65:2561
 90CB  CA        DEX                  | /home/lgb/prog_here/mega65-core-lgb/src/kickstart_dos.a65:2562
 90CC  10 F4     BPL   $00C2          | /home/lgb/prog_here/mega65-core-lgb/src/kickstart_dos.a65:2563
 90CE  FA        PLX                  | /home/lgb/prog_here/mega65-core-lgb/src/kickstart_dos.a65:2565
 90CF  20 4F A6  JSR   $A64F          | /home/lgb/prog_here/mega65-core-lgb/src/kickstart_dos.a65:2567
 90D2  00 4C 46 4E 28 78 78 29 3A 20 2E 2E 2E 2E 2E 2E  |.LFN(xx): ......|
 90E2  2E 2E 2E 2E 2E 2E 2E 2E 2E 2E 2E 2E 2E 2E 2E 2E  |................|
 90F2  2E 2E 2E 2E 2E 2E 2E 2E 00                       |.........       |
 90FB  60        RTS                  | /home/lgb/prog_here/mega65-core-lgb/src/kickstart_dos.a65:2572
 90FC  AA        TAX                  | /home/lgb/prog_here/mega65-core-lgb/src/kickstart_dos.a65:2578
 90FD  20 3A A7  JSR   $A73A          | /home/lgb/prog_here/mega65-core-lgb/src/kickstart_dos.a65:2580
 9100  8C 0A 91  STY   $910A          | /home/lgb/prog_here/mega65-core-lgb/src/kickstart_dos.a65:2581
 9103  8E 0B 91  STX   $910B          | /home/lgb/prog_here/mega65-core-lgb/src/kickstart_dos.a65:2582
 9106  20 4F A6  JSR   $A64F          | /home/lgb/prog_here/mega65-core-lgb/src/kickstart_dos.a65:2584
 9109  00 78 78 20 64 72 64 5F 64 65 6C 65 74 65 64 5F  |.xx drd_deleted_|
 9119  6F 72 5F 69 6E 76 61 6C 69 64 5F 65 6E 74 72 79  |or_invalid_entry|
 9129  00                                               |.               |
 912A  20 69 91  JSR   $9169          | /home/lgb/prog_here/mega65-core-lgb/src/kickstart_dos.a65:2588
 912D  B3 13 FB  BCS   $8C42          | /home/lgb/prog_here/mega65-core-lgb/src/kickstart_dos.a65:2589
 9130  4C 9C 8A  JMP   $8A9C          | /home/lgb/prog_here/mega65-core-lgb/src/kickstart_dos.a65:2590
 9133  00 0D 1A 27 34                                   |...'4           |
 9138  AD 4F BC  LDA   $BC4F          | /home/lgb/prog_here/mega65-core-lgb/src/kickstart_dos.a65:2607
 913B  CD 66 BC  CMP   $BC66          | /home/lgb/prog_here/mega65-core-lgb/src/kickstart_dos.a65:2608
 913E  D0 27     BNE   $0067          | /home/lgb/prog_here/mega65-core-lgb/src/kickstart_dos.a65:2609
 9140  AE 4F BC  LDX   $BC4F          | /home/lgb/prog_here/mega65-core-lgb/src/kickstart_dos.a65:2616
 9143  CA        DEX                  | /home/lgb/prog_here/mega65-core-lgb/src/kickstart_dos.a65:2617
 9144  BD 0F BC  LDA   $BC0F, X       | /home/lgb/prog_here/mega65-core-lgb/src/kickstart_dos.a65:2618
 9147  DD 67 BC  CMP   $BC67, X       | /home/lgb/prog_here/mega65-core-lgb/src/kickstart_dos.a65:2619
 914A  D0 1B     BNE   $0067          | /home/lgb/prog_here/mega65-core-lgb/src/kickstart_dos.a65:2620
 914C  CA        DEX                  | /home/lgb/prog_here/mega65-core-lgb/src/kickstart_dos.a65:2621
 914D  D0 F5     BNE   $0044          | /home/lgb/prog_here/mega65-core-lgb/src/kickstart_dos.a65:2622
 914F  20 4F A6  JSR   $A64F          | /home/lgb/prog_here/mega65-core-lgb/src/kickstart_dos.a65:2626
 9152  00 46 6F 75 6E 64 20 74 68 65 20 66 69 6C 65 2E  |.Found the file.|
 9162  2E 2E 00                                         |...             |
 9165  38        SEC                  | /home/lgb/prog_here/mega65-core-lgb/src/kickstart_dos.a65:2629
 9166  60        RTS                  | /home/lgb/prog_here/mega65-core-lgb/src/kickstart_dos.a65:2630
 9167  18        CLC                  | /home/lgb/prog_here/mega65-core-lgb/src/kickstart_dos.a65:2634
 9168  60        RTS                  | /home/lgb/prog_here/mega65-core-lgb/src/kickstart_dos.a65:2635
 9169  AC F5 BC  LDY   $BCF5          | /home/lgb/prog_here/mega65-core-lgb/src/kickstart_dos.a65:2641
 916C  18        CLC                  | /home/lgb/prog_here/mega65-core-lgb/src/kickstart_dos.a65:2643
 916D  B9 BF BC  LDA   $BCBF, Y       | /home/lgb/prog_here/mega65-core-lgb/src/kickstart_dos.a65:2644
 9170  69 20     ADC   #$20         | /home/lgb/prog_here/mega65-core-lgb/src/kickstart_dos.a65:2645
 9172  99 BF BC  STA   $BCBF, Y       | /home/lgb/prog_here/mega65-core-lgb/src/kickstart_dos.a65:2646
 9175  D0 0B     BNE   $0082          | /home/lgb/prog_here/mega65-core-lgb/src/kickstart_dos.a65:2647
 9177  B9 C0 BC  LDA   $BCC0, Y       | /home/lgb/prog_here/mega65-core-lgb/src/kickstart_dos.a65:2651
 917A  1A        INC                  | /home/lgb/prog_here/mega65-core-lgb/src/kickstart_dos.a65:2652
 917B  C9 01     CMP   #$01         | /home/lgb/prog_here/mega65-core-lgb/src/kickstart_dos.a65:2653
 917D  D0 05     BNE   $0084          | /home/lgb/prog_here/mega65-core-lgb/src/kickstart_dos.a65:2654
 917F  99 C0 BC  STA   $BCC0, Y       | /home/lgb/prog_here/mega65-core-lgb/src/kickstart_dos.a65:2655
 9182  38        SEC                  | /home/lgb/prog_here/mega65-core-lgb/src/kickstart_dos.a65:2658
 9183  60        RTS                  | /home/lgb/prog_here/mega65-core-lgb/src/kickstart_dos.a65:2659
 9184  A9 00     LDA   #$00         | /home/lgb/prog_here/mega65-core-lgb/src/kickstart_dos.a65:2667
 9186  99 C0 BC  STA   $BCC0, Y       | /home/lgb/prog_here/mega65-core-lgb/src/kickstart_dos.a65:2668
 9189  20 33 92  JSR   $9233          | /home/lgb/prog_here/mega65-core-lgb/src/kickstart_dos.a65:2670
 918C  60        RTS                  | /home/lgb/prog_here/mega65-core-lgb/src/kickstart_dos.a65:2671
 918D  20 5B 8B  JSR   $8B5B          | /home/lgb/prog_here/mega65-core-lgb/src/kickstart_dos.a65:2679
 9190  20 F0 91  JSR   $91F0          | /home/lgb/prog_here/mega65-core-lgb/src/kickstart_dos.a65:2680
 9193  93 07 F9  BCC   $8A9C          | /home/lgb/prog_here/mega65-core-lgb/src/kickstart_dos.a65:2681
 9196  AD 03 BC  LDA   $BC03          | /home/lgb/prog_here/mega65-core-lgb/src/kickstart_dos.a65:2685
 9199  9D B4 BC  STA   $BCB4, X       | /home/lgb/prog_here/mega65-core-lgb/src/kickstart_dos.a65:2686
 919C  A0 00     LDY   #$00         | /home/lgb/prog_here/mega65-core-lgb/src/kickstart_dos.a65:2690
 919E  B9 5D BC  LDA   $BC5D, Y       | /home/lgb/prog_here/mega65-core-lgb/src/kickstart_dos.a65:2692
 91A1  9D B6 BC  STA   $BCB6, X       | /home/lgb/prog_here/mega65-core-lgb/src/kickstart_dos.a65:2693
 91A4  9D BA BC  STA   $BCBA, X       | /home/lgb/prog_here/mega65-core-lgb/src/kickstart_dos.a65:2694
 91A7  E8        INX                  | /home/lgb/prog_here/mega65-core-lgb/src/kickstart_dos.a65:2695
 91A8  C8        INY                  | /home/lgb/prog_here/mega65-core-lgb/src/kickstart_dos.a65:2696
 91A9  C0 04     CPY   #$04         | /home/lgb/prog_here/mega65-core-lgb/src/kickstart_dos.a65:2697
 91AB  D0 F1     BNE   $009E          | /home/lgb/prog_here/mega65-core-lgb/src/kickstart_dos.a65:2698
 91AD  20 F0 91  JSR   $91F0          | /home/lgb/prog_here/mega65-core-lgb/src/kickstart_dos.a65:2700
 91B0  93 EA F8  BCC   $8A9C          | /home/lgb/prog_here/mega65-core-lgb/src/kickstart_dos.a65:2701
 91B3  AD 03 BC  LDA   $BC03          | /home/lgb/prog_here/mega65-core-lgb/src/kickstart_dos.a65:2705
 91B6  9D B4 BC  STA   $BCB4, X       | /home/lgb/prog_here/mega65-core-lgb/src/kickstart_dos.a65:2706
 91B9  A9 00     LDA   #$00         | /home/lgb/prog_here/mega65-core-lgb/src/kickstart_dos.a65:2710
 91BB  9D B5 BC  STA   $BCB5, X       | /home/lgb/prog_here/mega65-core-lgb/src/kickstart_dos.a65:2711
 91BE  A9 00     LDA   #$00         | /home/lgb/prog_here/mega65-core-lgb/src/kickstart_dos.a65:2715
 91C0  9D BE BC  STA   $BCBE, X       | /home/lgb/prog_here/mega65-core-lgb/src/kickstart_dos.a65:2716
 91C3  9D BF BC  STA   $BCBF, X       | /home/lgb/prog_here/mega65-core-lgb/src/kickstart_dos.a65:2720
 91C6  9D C0 BC  STA   $BCC0, X       | /home/lgb/prog_here/mega65-core-lgb/src/kickstart_dos.a65:2721
 91C9  38        SEC                  | /home/lgb/prog_here/mega65-core-lgb/src/kickstart_dos.a65:2723
 91CA  60        RTS                  | /home/lgb/prog_here/mega65-core-lgb/src/kickstart_dos.a65:2724
 91CB  20 F0 91  JSR   $91F0          | /home/lgb/prog_here/mega65-core-lgb/src/kickstart_dos.a65:2732
 91CE  93 CC F8  BCC   $8A9C          | /home/lgb/prog_here/mega65-core-lgb/src/kickstart_dos.a65:2733
 91D1  A0 03     LDY   #$03         | /home/lgb/prog_here/mega65-core-lgb/src/kickstart_dos.a65:2737
 91D3  BD B6 BC  LDA   $BCB6, X       | /home/lgb/prog_here/mega65-core-lgb/src/kickstart_dos.a65:2738
 91D6  9D BA BC  STA   $BCBA, X       | /home/lgb/prog_here/mega65-core-lgb/src/kickstart_dos.a65:2739
 91D9  E8        INX                  | /home/lgb/prog_here/mega65-core-lgb/src/kickstart_dos.a65:2740
 91DA  88        DEY                  | /home/lgb/prog_here/mega65-core-lgb/src/kickstart_dos.a65:2741
 91DB  10 F6     BPL   $00D3          | /home/lgb/prog_here/mega65-core-lgb/src/kickstart_dos.a65:2742
 91DD  20 F0 91  JSR   $91F0          | /home/lgb/prog_here/mega65-core-lgb/src/kickstart_dos.a65:2744
 91E0  A9 00     LDA   #$00         | /home/lgb/prog_here/mega65-core-lgb/src/kickstart_dos.a65:2745
 91E2  A0 06     LDY   #$06         | /home/lgb/prog_here/mega65-core-lgb/src/kickstart_dos.a65:2750
 91E4  9D BE BC  STA   $BCBE, X       | /home/lgb/prog_here/mega65-core-lgb/src/kickstart_dos.a65:2751
 91E7  E8        INX                  | /home/lgb/prog_here/mega65-core-lgb/src/kickstart_dos.a65:2752
 91E8  88        DEY                  | /home/lgb/prog_here/mega65-core-lgb/src/kickstart_dos.a65:2753
 91E9  D0 F9     BNE   $00E4          | /home/lgb/prog_here/mega65-core-lgb/src/kickstart_dos.a65:2754
 91EB  20 F0 91  JSR   $91F0          | /home/lgb/prog_here/mega65-core-lgb/src/kickstart_dos.a65:2756
 91EE  38        SEC                  | /home/lgb/prog_here/mega65-core-lgb/src/kickstart_dos.a65:2758
 91EF  60        RTS                  | /home/lgb/prog_here/mega65-core-lgb/src/kickstart_dos.a65:2759
 91F0  AD F4 BC  LDA   $BCF4          | /home/lgb/prog_here/mega65-core-lgb/src/kickstart_dos.a65:2768
 91F3  C9 04     CMP   #$04         | /home/lgb/prog_here/mega65-core-lgb/src/kickstart_dos.a65:2769
 91F5  B0 07     BCS   $00FE          | /home/lgb/prog_here/mega65-core-lgb/src/kickstart_dos.a65:2770
 91F7  0A        ASL                  | /home/lgb/prog_here/mega65-core-lgb/src/kickstart_dos.a65:2771
 91F8  0A        ASL                  | /home/lgb/prog_here/mega65-core-lgb/src/kickstart_dos.a65:2772
 91F9  0A        ASL                  | /home/lgb/prog_here/mega65-core-lgb/src/kickstart_dos.a65:2773
 91FA  0A        ASL                  | /home/lgb/prog_here/mega65-core-lgb/src/kickstart_dos.a65:2774
 91FB  AA        TAX                  | /home/lgb/prog_here/mega65-core-lgb/src/kickstart_dos.a65:2775
 91FC  38        SEC                  | /home/lgb/prog_here/mega65-core-lgb/src/kickstart_dos.a65:2776
 91FD  60        RTS                  | /home/lgb/prog_here/mega65-core-lgb/src/kickstart_dos.a65:2777
 91FE  A9 89     LDA   #$89         | /home/lgb/prog_here/mega65-core-lgb/src/kickstart_dos.a65:2783
 9200  4C 99 8A  JMP   $8A99          | /home/lgb/prog_here/mega65-core-lgb/src/kickstart_dos.a65:2784
 9203  20 F0 91  JSR   $91F0          | /home/lgb/prog_here/mega65-core-lgb/src/kickstart_dos.a65:2792
 9206  93 94 F8  BCC   $8A9C          | /home/lgb/prog_here/mega65-core-lgb/src/kickstart_dos.a65:2793
 9209  A0 00     LDY   #$00         | /home/lgb/prog_here/mega65-core-lgb/src/kickstart_dos.a65:2795
 920B  BD BA BC  LDA   $BCBA, X       | /home/lgb/prog_here/mega65-core-lgb/src/kickstart_dos.a65:2796
 920E  99 AF BC  STA   $BCAF, Y       | /home/lgb/prog_here/mega65-core-lgb/src/kickstart_dos.a65:2797
 9211  E8        INX                  | /home/lgb/prog_here/mega65-core-lgb/src/kickstart_dos.a65:2798
 9212  C8        INY                  | /home/lgb/prog_here/mega65-core-lgb/src/kickstart_dos.a65:2799
 9213  C0 04     CPY   #$04         | /home/lgb/prog_here/mega65-core-lgb/src/kickstart_dos.a65:2800
 9215  D0 F4     BNE   $000B          | /home/lgb/prog_here/mega65-core-lgb/src/kickstart_dos.a65:2801
 9217  60        RTS                  | /home/lgb/prog_here/mega65-core-lgb/src/kickstart_dos.a65:2802
 9218  20 03 92  JSR   $9203          | /home/lgb/prog_here/mega65-core-lgb/src/kickstart_dos.a65:2808
 921B  20 FE 8A  JSR   $8AFE          | /home/lgb/prog_here/mega65-core-lgb/src/kickstart_dos.a65:2809
 921E  20 F0 91  JSR   $91F0          | /home/lgb/prog_here/mega65-core-lgb/src/kickstart_dos.a65:2813
 9221  93 79 F8  BCC   $8A9C          | /home/lgb/prog_here/mega65-core-lgb/src/kickstart_dos.a65:2814
 9224  09 0A     ORA   #$0A         | /home/lgb/prog_here/mega65-core-lgb/src/kickstart_dos.a65:2819
 9226  A8        TAY                  | /home/lgb/prog_here/mega65-core-lgb/src/kickstart_dos.a65:2824
 9227  B9 B4 BC  LDA   $BCB4, Y       | /home/lgb/prog_here/mega65-core-lgb/src/kickstart_dos.a65:2825
 922A  20 03 96  JSR   $9603          | /home/lgb/prog_here/mega65-core-lgb/src/kickstart_dos.a65:2830
 922D  20 0D 9A  JSR   $9A0D          | /home/lgb/prog_here/mega65-core-lgb/src/kickstart_dos.a65:2832
 9230  4C 2F 99  JMP   $992F          | /home/lgb/prog_here/mega65-core-lgb/src/kickstart_dos.a65:2833
 9233  AE F5 BC  LDX   $BCF5          | /home/lgb/prog_here/mega65-core-lgb/src/kickstart_dos.a65:2841
 9236  BD C1 BC  LDA   $BCC1, X       | /home/lgb/prog_here/mega65-core-lgb/src/kickstart_dos.a65:2843
 9239  18        CLC                  | /home/lgb/prog_here/mega65-core-lgb/src/kickstart_dos.a65:2844
 923A  69 02     ADC   #$02         | /home/lgb/prog_here/mega65-core-lgb/src/kickstart_dos.a65:2845
 923C  9D C1 BC  STA   $BCC1, X       | /home/lgb/prog_here/mega65-core-lgb/src/kickstart_dos.a65:2846
 923F  90 08     BCC   $0049          | /home/lgb/prog_here/mega65-core-lgb/src/kickstart_dos.a65:2847
 9241  FE C2 BC  INC   $BCC2, X       | /home/lgb/prog_here/mega65-core-lgb/src/kickstart_dos.a65:2848
 9244  D0 03     BNE   $0049          | /home/lgb/prog_here/mega65-core-lgb/src/kickstart_dos.a65:2849
 9246  FE C3 BC  INC   $BCC3, X       | /home/lgb/prog_here/mega65-core-lgb/src/kickstart_dos.a65:2850
 9249  FE BE BC  INC   $BCBE, X       | /home/lgb/prog_here/mega65-core-lgb/src/kickstart_dos.a65:2855
 924C  BD BE BC  LDA   $BCBE, X       | /home/lgb/prog_here/mega65-core-lgb/src/kickstart_dos.a65:2856
 924F  AC 04 BC  LDY   $BC04          | /home/lgb/prog_here/mega65-core-lgb/src/kickstart_dos.a65:2857
 9252  D9 16 BB  CMP   $BB16, Y       | /home/lgb/prog_here/mega65-core-lgb/src/kickstart_dos.a65:2859
 9255  F0 02     BEQ   $0059          | /home/lgb/prog_here/mega65-core-lgb/src/kickstart_dos.a65:2863
 9257  38        SEC                  | /home/lgb/prog_here/mega65-core-lgb/src/kickstart_dos.a65:2864
 9258  60        RTS                  | /home/lgb/prog_here/mega65-core-lgb/src/kickstart_dos.a65:2865
 9259  AC F5 BC  LDY   $BCF5          | /home/lgb/prog_here/mega65-core-lgb/src/kickstart_dos.a65:2873
 925C  A9 00     LDA   #$00         | /home/lgb/prog_here/mega65-core-lgb/src/kickstart_dos.a65:2874
 925E  99 BE BC  STA   $BCBE, Y       | /home/lgb/prog_here/mega65-core-lgb/src/kickstart_dos.a65:2875
 9261  20 03 92  JSR   $9203          | /home/lgb/prog_here/mega65-core-lgb/src/kickstart_dos.a65:2886
 9264  A2 03     LDX   #$03         | /home/lgb/prog_here/mega65-core-lgb/src/kickstart_dos.a65:2890
 9266  BD AF BC  LDA   $BCAF, X       | /home/lgb/prog_here/mega65-core-lgb/src/kickstart_dos.a65:2892
 9269  9D AB BC  STA   $BCAB, X       | /home/lgb/prog_here/mega65-core-lgb/src/kickstart_dos.a65:2893
 926C  CA        DEX                  | /home/lgb/prog_here/mega65-core-lgb/src/kickstart_dos.a65:2894
 926D  10 F7     BPL   $0066          | /home/lgb/prog_here/mega65-core-lgb/src/kickstart_dos.a65:2895
 926F  AD AF BC  LDA   $BCAF          | /home/lgb/prog_here/mega65-core-lgb/src/kickstart_dos.a65:2900
 9272  8D 05 BF  STA   $BF05          | /home/lgb/prog_here/mega65-core-lgb/src/kickstart_dos.a65:2901
 9275  A0 07     LDY   #$07         | /home/lgb/prog_here/mega65-core-lgb/src/kickstart_dos.a65:2905
 9277  18        CLC                  | /home/lgb/prog_here/mega65-core-lgb/src/kickstart_dos.a65:2906
 9278  6E B2 BC  ROR   $BCB2          | /home/lgb/prog_here/mega65-core-lgb/src/kickstart_dos.a65:2907
 927B  6E B1 BC  ROR   $BCB1          | /home/lgb/prog_here/mega65-core-lgb/src/kickstart_dos.a65:2908
 927E  6E B0 BC  ROR   $BCB0          | /home/lgb/prog_here/mega65-core-lgb/src/kickstart_dos.a65:2909
 9281  6E AF BC  ROR   $BCAF          | /home/lgb/prog_here/mega65-core-lgb/src/kickstart_dos.a65:2910
 9284  88        DEY                  | /home/lgb/prog_here/mega65-core-lgb/src/kickstart_dos.a65:2911
 9285  D0 F0     BNE   $0077          | /home/lgb/prog_here/mega65-core-lgb/src/kickstart_dos.a65:2912
 9287  AC 04 BC  LDY   $BC04          | /home/lgb/prog_here/mega65-core-lgb/src/kickstart_dos.a65:2916
 928A  A2 00     LDX   #$00         | /home/lgb/prog_here/mega65-core-lgb/src/kickstart_dos.a65:2917
 928C  18        CLC                  | /home/lgb/prog_here/mega65-core-lgb/src/kickstart_dos.a65:2918
 928D  08        PHP                  | /home/lgb/prog_here/mega65-core-lgb/src/kickstart_dos.a65:2919
 928E  28        PLP                  | /home/lgb/prog_here/mega65-core-lgb/src/kickstart_dos.a65:2920
 928F  BD AF BC  LDA   $BCAF, X       | /home/lgb/prog_here/mega65-core-lgb/src/kickstart_dos.a65:2921
 9292  79 00 BB  ADC   $BB00, Y       | /home/lgb/prog_here/mega65-core-lgb/src/kickstart_dos.a65:2922
 9295  9D AF BC  STA   $BCAF, X       | /home/lgb/prog_here/mega65-core-lgb/src/kickstart_dos.a65:2923
 9298  08        PHP                  | /home/lgb/prog_here/mega65-core-lgb/src/kickstart_dos.a65:2924
 9299  C8        INY                  | /home/lgb/prog_here/mega65-core-lgb/src/kickstart_dos.a65:2925
 929A  E8        INX                  | /home/lgb/prog_here/mega65-core-lgb/src/kickstart_dos.a65:2926
 929B  E0 04     CPX   #$04         | /home/lgb/prog_here/mega65-core-lgb/src/kickstart_dos.a65:2927
 929D  D0 EF     BNE   $008E          | /home/lgb/prog_here/mega65-core-lgb/src/kickstart_dos.a65:2928
 929F  28        PLP                  | /home/lgb/prog_here/mega65-core-lgb/src/kickstart_dos.a65:2929
 92A0  AC 04 BC  LDY   $BC04          | /home/lgb/prog_here/mega65-core-lgb/src/kickstart_dos.a65:2933
 92A3  A2 00     LDX   #$00         | /home/lgb/prog_here/mega65-core-lgb/src/kickstart_dos.a65:2934
 92A5  18        CLC                  | /home/lgb/prog_here/mega65-core-lgb/src/kickstart_dos.a65:2935
 92A6  08        PHP                  | /home/lgb/prog_here/mega65-core-lgb/src/kickstart_dos.a65:2936
 92A7  28        PLP                  | /home/lgb/prog_here/mega65-core-lgb/src/kickstart_dos.a65:2937
 92A8  BD AF BC  LDA   $BCAF, X       | /home/lgb/prog_here/mega65-core-lgb/src/kickstart_dos.a65:2938
 92AB  79 0D BB  ADC   $BB0D, Y       | /home/lgb/prog_here/mega65-core-lgb/src/kickstart_dos.a65:2939
 92AE  9D AF BC  STA   $BCAF, X       | /home/lgb/prog_here/mega65-core-lgb/src/kickstart_dos.a65:2940
 92B1  08        PHP                  | /home/lgb/prog_here/mega65-core-lgb/src/kickstart_dos.a65:2941
 92B2  C8        INY                  | /home/lgb/prog_here/mega65-core-lgb/src/kickstart_dos.a65:2942
 92B3  E8        INX                  | /home/lgb/prog_here/mega65-core-lgb/src/kickstart_dos.a65:2943
 92B4  E0 02     CPX   #$02         | /home/lgb/prog_here/mega65-core-lgb/src/kickstart_dos.a65:2944
 92B6  D0 EF     BNE   $00A7          | /home/lgb/prog_here/mega65-core-lgb/src/kickstart_dos.a65:2945
 92B8  A2 03     LDX   #$03         | /home/lgb/prog_here/mega65-core-lgb/src/kickstart_dos.a65:2949
 92BA  BD AF BC  LDA   $BCAF, X       | /home/lgb/prog_here/mega65-core-lgb/src/kickstart_dos.a65:2951
 92BD  9D 81 D6  STA   $D681, X       | /home/lgb/prog_here/mega65-core-lgb/src/kickstart_dos.a65:2952
 92C0  CA        DEX                  | /home/lgb/prog_here/mega65-core-lgb/src/kickstart_dos.a65:2953
 92C1  10 F7     BPL   $00BA          | /home/lgb/prog_here/mega65-core-lgb/src/kickstart_dos.a65:2954
 92C3  28        PLP                  | /home/lgb/prog_here/mega65-core-lgb/src/kickstart_dos.a65:2957
 92C4  BD AF BC  LDA   $BCAF, X       | /home/lgb/prog_here/mega65-core-lgb/src/kickstart_dos.a65:2958
 92C7  69 00     ADC   #$00         | /home/lgb/prog_here/mega65-core-lgb/src/kickstart_dos.a65:2959
 92C9  9D AF BC  STA   $BCAF, X       | /home/lgb/prog_here/mega65-core-lgb/src/kickstart_dos.a65:2960
 92CC  08        PHP                  | /home/lgb/prog_here/mega65-core-lgb/src/kickstart_dos.a65:2961
 92CD  E8        INX                  | /home/lgb/prog_here/mega65-core-lgb/src/kickstart_dos.a65:2962
 92CE  E0 04     CPX   #$04         | /home/lgb/prog_here/mega65-core-lgb/src/kickstart_dos.a65:2963
 92D0  D0 F1     BNE   $00C3          | /home/lgb/prog_here/mega65-core-lgb/src/kickstart_dos.a65:2964
 92D2  28        PLP                  | /home/lgb/prog_here/mega65-core-lgb/src/kickstart_dos.a65:2966
 92D3  20 0D 9A  JSR   $9A0D          | /home/lgb/prog_here/mega65-core-lgb/src/kickstart_dos.a65:2970
 92D6  20 2F 99  JSR   $992F          | /home/lgb/prog_here/mega65-core-lgb/src/kickstart_dos.a65:2974
 92D9  93 C1 F7  BCC   $8A9C          | /home/lgb/prog_here/mega65-core-lgb/src/kickstart_dos.a65:2975
 92DC  20 1F 99  JSR   $991F          | /home/lgb/prog_here/mega65-core-lgb/src/kickstart_dos.a65:2977
 92DF  AD 05 BF  LDA   $BF05          | /home/lgb/prog_here/mega65-core-lgb/src/kickstart_dos.a65:2985
 92E2  0A        ASL                  | /home/lgb/prog_here/mega65-core-lgb/src/kickstart_dos.a65:2986
 92E3  0A        ASL                  | /home/lgb/prog_here/mega65-core-lgb/src/kickstart_dos.a65:2987
 92E4  AA        TAX                  | /home/lgb/prog_here/mega65-core-lgb/src/kickstart_dos.a65:2988
 92E5  AD F5 BC  LDA   $BCF5          | /home/lgb/prog_here/mega65-core-lgb/src/kickstart_dos.a65:2991
 92E8  09 06     ORA   #$06         | /home/lgb/prog_here/mega65-core-lgb/src/kickstart_dos.a65:2992
 92EA  A8        TAY                  | /home/lgb/prog_here/mega65-core-lgb/src/kickstart_dos.a65:2993
 92EB  8C 06 BF  STY   $BF06          | /home/lgb/prog_here/mega65-core-lgb/src/kickstart_dos.a65:2997
 92EE  AC 06 BF  LDY   $BF06          | /home/lgb/prog_here/mega65-core-lgb/src/kickstart_dos.a65:3002
 92F1  A3 00     LDZ   #$00         | /home/lgb/prog_here/mega65-core-lgb/src/kickstart_dos.a65:3004
 92F3  AD 05 BF  LDA   $BF05          | /home/lgb/prog_here/mega65-core-lgb/src/kickstart_dos.a65:3005
 92F6  29 40     AND   #$40         | /home/lgb/prog_here/mega65-core-lgb/src/kickstart_dos.a65:3006
 92F8  D0 0F     BNE   $0009          | /home/lgb/prog_here/mega65-core-lgb/src/kickstart_dos.a65:3007
 92FA  BD 00 DE  LDA   $DE00, X       | /home/lgb/prog_here/mega65-core-lgb/src/kickstart_dos.a65:3009
 92FD  99 B4 BC  STA   $BCB4, Y       | /home/lgb/prog_here/mega65-core-lgb/src/kickstart_dos.a65:3010
 9300  E8        INX                  | /home/lgb/prog_here/mega65-core-lgb/src/kickstart_dos.a65:3011
 9301  C8        INY                  | /home/lgb/prog_here/mega65-core-lgb/src/kickstart_dos.a65:3012
 9302  1B        INZ                  | /home/lgb/prog_here/mega65-core-lgb/src/kickstart_dos.a65:3013
 9303  C2 04     CPZ   #$04         | /home/lgb/prog_here/mega65-core-lgb/src/kickstart_dos.a65:3014
 9305  D0 F3     BNE   $00FA          | /home/lgb/prog_here/mega65-core-lgb/src/kickstart_dos.a65:3015
 9307  80 0D     BRA   $0016          | /home/lgb/prog_here/mega65-core-lgb/src/kickstart_dos.a65:3016
 9309  BD 00 DF  LDA   $DF00, X       | /home/lgb/prog_here/mega65-core-lgb/src/kickstart_dos.a65:3019
 930C  99 B4 BC  STA   $BCB4, Y       | /home/lgb/prog_here/mega65-core-lgb/src/kickstart_dos.a65:3020
 930F  E8        INX                  | /home/lgb/prog_here/mega65-core-lgb/src/kickstart_dos.a65:3021
 9310  C8        INY                  | /home/lgb/prog_here/mega65-core-lgb/src/kickstart_dos.a65:3022
 9311  1B        INZ                  | /home/lgb/prog_here/mega65-core-lgb/src/kickstart_dos.a65:3023
 9312  C2 04     CPZ   #$04         | /home/lgb/prog_here/mega65-core-lgb/src/kickstart_dos.a65:3024
 9314  D0 F3     BNE   $0009          | /home/lgb/prog_here/mega65-core-lgb/src/kickstart_dos.a65:3025
 9316  20 4F A6  JSR   $A64F          | /home/lgb/prog_here/mega65-core-lgb/src/kickstart_dos.a65:3032
 9319  00 57 41 52 4E 3A 20 50 52 49 4E 54 48 45 58 20  |.WARN: PRINTHEX |
 9329  69 6E 20 64 66 61 6E 63 5F 63 68 65 63 6B 00     |in dfanc_check. |
 9338  A0 00     LDY   #$00         | /home/lgb/prog_here/mega65-core-lgb/src/kickstart_dos.a65:3035
 933A  B9 B7 BC  LDA   $BCB7, Y       | /home/lgb/prog_here/mega65-core-lgb/src/kickstart_dos.a65:3039
 933D  4B        TAZ                  | /home/lgb/prog_here/mega65-core-lgb/src/kickstart_dos.a65:3040
 933E  5A        PHY                  | /home/lgb/prog_here/mega65-core-lgb/src/kickstart_dos.a65:3041
 933F  20 AC A3  JSR   $A3AC          | /home/lgb/prog_here/mega65-core-lgb/src/kickstart_dos.a65:3042
 9342  7A        PLY                  | /home/lgb/prog_here/mega65-core-lgb/src/kickstart_dos.a65:3043
 9343  B9 B6 BC  LDA   $BCB6, Y       | /home/lgb/prog_here/mega65-core-lgb/src/kickstart_dos.a65:3044
 9346  4B        TAZ                  | /home/lgb/prog_here/mega65-core-lgb/src/kickstart_dos.a65:3045
 9347  5A        PHY                  | /home/lgb/prog_here/mega65-core-lgb/src/kickstart_dos.a65:3046
 9348  20 AC A3  JSR   $A3AC          | /home/lgb/prog_here/mega65-core-lgb/src/kickstart_dos.a65:3047
 934B  7A        PLY                  | /home/lgb/prog_here/mega65-core-lgb/src/kickstart_dos.a65:3048
 934C  B9 B5 BC  LDA   $BCB5, Y       | /home/lgb/prog_here/mega65-core-lgb/src/kickstart_dos.a65:3049
 934F  4B        TAZ                  | /home/lgb/prog_here/mega65-core-lgb/src/kickstart_dos.a65:3050
 9350  5A        PHY                  | /home/lgb/prog_here/mega65-core-lgb/src/kickstart_dos.a65:3051
 9351  20 AC A3  JSR   $A3AC          | /home/lgb/prog_here/mega65-core-lgb/src/kickstart_dos.a65:3052
 9354  7A        PLY                  | /home/lgb/prog_here/mega65-core-lgb/src/kickstart_dos.a65:3053
 9355  B9 B4 BC  LDA   $BCB4, Y       | /home/lgb/prog_here/mega65-core-lgb/src/kickstart_dos.a65:3054
 9358  4B        TAZ                  | /home/lgb/prog_here/mega65-core-lgb/src/kickstart_dos.a65:3055
 9359  20 AC A3  JSR   $A3AC          | /home/lgb/prog_here/mega65-core-lgb/src/kickstart_dos.a65:3056
 935C  AC 06 BF  LDY   $BF06          | /home/lgb/prog_here/mega65-core-lgb/src/kickstart_dos.a65:3060
 935F  B9 B7 BC  LDA   $BCB7, Y       | /home/lgb/prog_here/mega65-core-lgb/src/kickstart_dos.a65:3064
 9362  29 0F     AND   #$0F         | /home/lgb/prog_here/mega65-core-lgb/src/kickstart_dos.a65:3065
 9364  99 B7 BC  STA   $BCB7, Y       | /home/lgb/prog_here/mega65-core-lgb/src/kickstart_dos.a65:3066
 9367  B9 B7 BC  LDA   $BCB7, Y       | /home/lgb/prog_here/mega65-core-lgb/src/kickstart_dos.a65:3071
 936A  19 B6 BC  ORA   $BCB6, Y       | /home/lgb/prog_here/mega65-core-lgb/src/kickstart_dos.a65:3072
 936D  19 B5 BC  ORA   $BCB5, Y       | /home/lgb/prog_here/mega65-core-lgb/src/kickstart_dos.a65:3073
 9370  19 B4 BC  ORA   $BCB4, Y       | /home/lgb/prog_here/mega65-core-lgb/src/kickstart_dos.a65:3074
 9373  C9 00     CMP   #$00         | /home/lgb/prog_here/mega65-core-lgb/src/kickstart_dos.a65:3075
 9375  F0 1C     BEQ   $0093          | /home/lgb/prog_here/mega65-core-lgb/src/kickstart_dos.a65:3076
 9377  B9 B7 BC  LDA   $BCB7, Y       | /home/lgb/prog_here/mega65-core-lgb/src/kickstart_dos.a65:3081
 937A  C9 0F     CMP   #$0F         | /home/lgb/prog_here/mega65-core-lgb/src/kickstart_dos.a65:3082
 937C  D0 13     BNE   $0091          | /home/lgb/prog_here/mega65-core-lgb/src/kickstart_dos.a65:3083
 937E  B9 B6 BC  LDA   $BCB6, Y       | /home/lgb/prog_here/mega65-core-lgb/src/kickstart_dos.a65:3084
 9381  39 B5 BC  AND   $BCB5, Y       | /home/lgb/prog_here/mega65-core-lgb/src/kickstart_dos.a65:3085
 9384  C9 FF     CMP   #$FF         | /home/lgb/prog_here/mega65-core-lgb/src/kickstart_dos.a65:3086
 9386  D0 09     BNE   $0091          | /home/lgb/prog_here/mega65-core-lgb/src/kickstart_dos.a65:3087
 9388  B9 B4 BC  LDA   $BCB4, Y       | /home/lgb/prog_here/mega65-core-lgb/src/kickstart_dos.a65:3088
 938B  29 F0     AND   #$F0         | /home/lgb/prog_here/mega65-core-lgb/src/kickstart_dos.a65:3089
 938D  C9 F0     CMP   #$F0         | /home/lgb/prog_here/mega65-core-lgb/src/kickstart_dos.a65:3090
 938F  F0 02     BEQ   $0093          | /home/lgb/prog_here/mega65-core-lgb/src/kickstart_dos.a65:3091
 9391  38        SEC                  | /home/lgb/prog_here/mega65-core-lgb/src/kickstart_dos.a65:3095
 9392  60        RTS                  | /home/lgb/prog_here/mega65-core-lgb/src/kickstart_dos.a65:3096
 9393  A9 85     LDA   #$85         | /home/lgb/prog_here/mega65-core-lgb/src/kickstart_dos.a65:3099
 9395  4C 99 8A  JMP   $8A99          | /home/lgb/prog_here/mega65-core-lgb/src/kickstart_dos.a65:3100
 9398  A2 E6     LDX   #$E6         | /home/lgb/prog_here/mega65-core-lgb/src/kickstart_dos.a65:3108
 939A  A0 AB     LDY   #$AB         | /home/lgb/prog_here/mega65-core-lgb/src/kickstart_dos.a65:3109
 939C  20 1A A3  JSR   $A31A          | /home/lgb/prog_here/mega65-core-lgb/src/kickstart_dos.a65:3110
 939F  A0 00     LDY   #$00         | /home/lgb/prog_here/mega65-core-lgb/src/kickstart_dos.a65:3111
 93A1  AB B2 BC  LDZ   $BCB2          | /home/lgb/prog_here/mega65-core-lgb/src/kickstart_dos.a65:3112
 93A4  20 AC A3  JSR   $A3AC          | /home/lgb/prog_here/mega65-core-lgb/src/kickstart_dos.a65:3113
 93A7  AB B1 BC  LDZ   $BCB1          | /home/lgb/prog_here/mega65-core-lgb/src/kickstart_dos.a65:3114
 93AA  20 AC A3  JSR   $A3AC          | /home/lgb/prog_here/mega65-core-lgb/src/kickstart_dos.a65:3115
 93AD  AB B0 BC  LDZ   $BCB0          | /home/lgb/prog_here/mega65-core-lgb/src/kickstart_dos.a65:3116
 93B0  20 AC A3  JSR   $A3AC          | /home/lgb/prog_here/mega65-core-lgb/src/kickstart_dos.a65:3117
 93B3  AB AF BC  LDZ   $BCAF          | /home/lgb/prog_here/mega65-core-lgb/src/kickstart_dos.a65:3118
 93B6  20 AC A3  JSR   $A3AC          | /home/lgb/prog_here/mega65-core-lgb/src/kickstart_dos.a65:3119
 93B9  20 4F A6  JSR   $A64F          | /home/lgb/prog_here/mega65-core-lgb/src/kickstart_dos.a65:3121
 93BC  00 64 6F 73 5F 70 72 69 6E 74 5F 63 75 72 72 65  |.dos_print_curre|
 93CC  6E 74 5F 63 6C 75 73 74 65 72 00                 |nt_cluster.     |
 93D7  60        RTS                  | /home/lgb/prog_here/mega65-core-lgb/src/kickstart_dos.a65:3124
 93D8  A2 00     LDX   #$00         | /home/lgb/prog_here/mega65-core-lgb/src/kickstart_dos.a65:3142
 93DA  8E A9 BC  STX   $BCA9          | /home/lgb/prog_here/mega65-core-lgb/src/kickstart_dos.a65:3143
 93DD  8E AA BC  STX   $BCAA          | /home/lgb/prog_here/mega65-core-lgb/src/kickstart_dos.a65:3144
 93E0  20 ED 8B  JSR   $8BED          | /home/lgb/prog_here/mega65-core-lgb/src/kickstart_dos.a65:3146
 93E3  08        PHP                  | /home/lgb/prog_here/mega65-core-lgb/src/kickstart_dos.a65:3147
 93E4  20 B7 8B  JSR   $8BB7          | /home/lgb/prog_here/mega65-core-lgb/src/kickstart_dos.a65:3151
 93E7  28        PLP                  | /home/lgb/prog_here/mega65-core-lgb/src/kickstart_dos.a65:3152
 93E8  93 B2 F6  BCC   $8A9C          | /home/lgb/prog_here/mega65-core-lgb/src/kickstart_dos.a65:3156
 93EB  20 CB 8B  JSR   $8BCB          | /home/lgb/prog_here/mega65-core-lgb/src/kickstart_dos.a65:3158
 93EE  93 AC F6  BCC   $8A9C          | /home/lgb/prog_here/mega65-core-lgb/src/kickstart_dos.a65:3159
 93F1  20 1F 99  JSR   $991F          | /home/lgb/prog_here/mega65-core-lgb/src/kickstart_dos.a65:3161
 93F4  20 18 92  JSR   $9218          | /home/lgb/prog_here/mega65-core-lgb/src/kickstart_dos.a65:3167
 93F7  93 34 00  BCC   $942D          | /home/lgb/prog_here/mega65-core-lgb/src/kickstart_dos.a65:3168
 93FA  A2 00     LDX   #$00         | /home/lgb/prog_here/mega65-core-lgb/src/kickstart_dos.a65:3172
 93FC  A3 00     LDZ   #$00         | /home/lgb/prog_here/mega65-core-lgb/src/kickstart_dos.a65:3173
 93FE  BD 00 DE  LDA   $DE00, X       | /home/lgb/prog_here/mega65-core-lgb/src/kickstart_dos.a65:3175
 9401  EA        NOP                  | /home/lgb/prog_here/mega65-core-lgb/src/kickstart_dos.a65:3176
 9402  92 19     STA   ($19), Z     | /home/lgb/prog_here/mega65-core-lgb/src/kickstart_dos.a65:3177
 9404  1B        INZ                  | /home/lgb/prog_here/mega65-core-lgb/src/kickstart_dos.a65:3178
 9405  E8        INX                  | /home/lgb/prog_here/mega65-core-lgb/src/kickstart_dos.a65:3179
 9406  D0 F6     BNE   $00FE          | /home/lgb/prog_here/mega65-core-lgb/src/kickstart_dos.a65:3180
 9408  E3 1A     INW   $1A          | /home/lgb/prog_here/mega65-core-lgb/src/kickstart_dos.a65:3182
 940A  BD 00 DF  LDA   $DF00, X       | /home/lgb/prog_here/mega65-core-lgb/src/kickstart_dos.a65:3185
 940D  EA        NOP                  | /home/lgb/prog_here/mega65-core-lgb/src/kickstart_dos.a65:3186
 940E  92 19     STA   ($19), Z     | /home/lgb/prog_here/mega65-core-lgb/src/kickstart_dos.a65:3187
 9410  1B        INZ                  | /home/lgb/prog_here/mega65-core-lgb/src/kickstart_dos.a65:3188
 9411  E8        INX                  | /home/lgb/prog_here/mega65-core-lgb/src/kickstart_dos.a65:3189
 9412  D0 F6     BNE   $000A          | /home/lgb/prog_here/mega65-core-lgb/src/kickstart_dos.a65:3190
 9414  20 33 92  JSR   $9233          | /home/lgb/prog_here/mega65-core-lgb/src/kickstart_dos.a65:3192
 9417  90 14     BCC   $002D          | /home/lgb/prog_here/mega65-core-lgb/src/kickstart_dos.a65:3193
 9419  E3 1A     INW   $1A          | /home/lgb/prog_here/mega65-core-lgb/src/kickstart_dos.a65:3202
 941B  EE A9 BC  INC   $BCA9          | /home/lgb/prog_here/mega65-core-lgb/src/kickstart_dos.a65:3206
 941E  D0 D4     BNE   $00F4          | /home/lgb/prog_here/mega65-core-lgb/src/kickstart_dos.a65:3207
 9420  EE AA BC  INC   $BCAA          | /home/lgb/prog_here/mega65-core-lgb/src/kickstart_dos.a65:3209
 9423  D0 CF     BNE   $00F4          | /home/lgb/prog_here/mega65-core-lgb/src/kickstart_dos.a65:3211
 9425  20 B7 8B  JSR   $8BB7          | /home/lgb/prog_here/mega65-core-lgb/src/kickstart_dos.a65:3213
 9428  A9 83     LDA   #$83         | /home/lgb/prog_here/mega65-core-lgb/src/kickstart_dos.a65:3217
 942A  4C 99 8A  JMP   $8A99          | /home/lgb/prog_here/mega65-core-lgb/src/kickstart_dos.a65:3218
 942D  20 B7 8B  JSR   $8BB7          | /home/lgb/prog_here/mega65-core-lgb/src/kickstart_dos.a65:3224
 9430  4C 92 8A  JMP   $8A92          | /home/lgb/prog_here/mega65-core-lgb/src/kickstart_dos.a65:3225
 9433  8E 01 BF  STX   $BF01          | /home/lgb/prog_here/mega65-core-lgb/src/kickstart_dos.a65:3235
 9436  8C 02 BF  STY   $BF02          | /home/lgb/prog_here/mega65-core-lgb/src/kickstart_dos.a65:3236
 9439  A0 00     LDY   #$00         | /home/lgb/prog_here/mega65-core-lgb/src/kickstart_dos.a65:3237
 943B  B1 01     LDA   ($01), Y     | /home/lgb/prog_here/mega65-core-lgb/src/kickstart_dos.a65:3239
 943D  99 67 BC  STA   $BC67, Y       | /home/lgb/prog_here/mega65-core-lgb/src/kickstart_dos.a65:3240
 9440  F0 0E     BEQ   $0050          | /home/lgb/prog_here/mega65-core-lgb/src/kickstart_dos.a65:3241
 9442  C8        INY                  | /home/lgb/prog_here/mega65-core-lgb/src/kickstart_dos.a65:3242
 9443  C0 40     CPY   #$40         | /home/lgb/prog_here/mega65-core-lgb/src/kickstart_dos.a65:3243
 9445  D0 F4     BNE   $003B          | /home/lgb/prog_here/mega65-core-lgb/src/kickstart_dos.a65:3244
 9447  A9 00     LDA   #$00         | /home/lgb/prog_here/mega65-core-lgb/src/kickstart_dos.a65:3246
 9449  8D 66 BC  STA   $BC66          | /home/lgb/prog_here/mega65-core-lgb/src/kickstart_dos.a65:3247
 944C  A9 81     LDA   #$81         | /home/lgb/prog_here/mega65-core-lgb/src/kickstart_dos.a65:3248
 944E  18        CLC                  | /home/lgb/prog_here/mega65-core-lgb/src/kickstart_dos.a65:3249
 944F  60        RTS                  | /home/lgb/prog_here/mega65-core-lgb/src/kickstart_dos.a65:3250
 9450  8C 66 BC  STY   $BC66          | /home/lgb/prog_here/mega65-core-lgb/src/kickstart_dos.a65:3253
 9453  38        SEC                  | /home/lgb/prog_here/mega65-core-lgb/src/kickstart_dos.a65:3255
 9454  60        RTS                  | /home/lgb/prog_here/mega65-core-lgb/src/kickstart_dos.a65:3256
 9455  20 4F A6  JSR   $A64F          | /home/lgb/prog_here/mega65-core-lgb/src/kickstart_dos.a65:3262
 9458  00 64 6F 73 5F 64 38 31 61 74 74 61 63 68 20 3C  |.dos_d81attach <|
 9468  63 68 65 63 6B 69 6E 67 3E 00                    |checking>.      |
 9472  20 E0 8B  JSR   $8BE0          | /home/lgb/prog_here/mega65-core-lgb/src/kickstart_dos.a65:3267
 9475  B0 04     BCS   $007B          | /home/lgb/prog_here/mega65-core-lgb/src/kickstart_dos.a65:3268
 9477  A9 88     LDA   #$88         | /home/lgb/prog_here/mega65-core-lgb/src/kickstart_dos.a65:3270
 9479  18        CLC                  | /home/lgb/prog_here/mega65-core-lgb/src/kickstart_dos.a65:3271
 947A  60        RTS                  | /home/lgb/prog_here/mega65-core-lgb/src/kickstart_dos.a65:3272
 947B  20 B7 8B  JSR   $8BB7          | /home/lgb/prog_here/mega65-core-lgb/src/kickstart_dos.a65:3277
 947E  20 8D 91  JSR   $918D          | /home/lgb/prog_here/mega65-core-lgb/src/kickstart_dos.a65:3284
 9481  93 5B 01  BCC   $95DE          | /home/lgb/prog_here/mega65-core-lgb/src/kickstart_dos.a65:3285
 9484  20 CB 8B  JSR   $8BCB          | /home/lgb/prog_here/mega65-core-lgb/src/kickstart_dos.a65:3287
 9487  93 55 01  BCC   $95DE          | /home/lgb/prog_here/mega65-core-lgb/src/kickstart_dos.a65:3288
 948A  A9 00     LDA   #$00         | /home/lgb/prog_here/mega65-core-lgb/src/kickstart_dos.a65:3295
 948C  8D 0E CE  STA   $CE0E          | /home/lgb/prog_here/mega65-core-lgb/src/kickstart_dos.a65:3296
 948F  8D 0F CE  STA   $CE0F          | /home/lgb/prog_here/mega65-core-lgb/src/kickstart_dos.a65:3297
 9492  A9 40     LDA   #$40         | /home/lgb/prog_here/mega65-core-lgb/src/kickstart_dos.a65:3298
 9494  8D 0C CE  STA   $CE0C          | /home/lgb/prog_here/mega65-core-lgb/src/kickstart_dos.a65:3299
 9497  A9 06     LDA   #$06         | /home/lgb/prog_here/mega65-core-lgb/src/kickstart_dos.a65:3300
 9499  8D 0D CE  STA   $CE0D          | /home/lgb/prog_here/mega65-core-lgb/src/kickstart_dos.a65:3301
 949C  AE 04 BC  LDX   $BC04          | /home/lgb/prog_here/mega65-core-lgb/src/kickstart_dos.a65:3305
 949F  BD 16 BB  LDA   $BB16, X       | /home/lgb/prog_here/mega65-core-lgb/src/kickstart_dos.a65:3306
 94A2  4B        TAZ                  | /home/lgb/prog_here/mega65-core-lgb/src/kickstart_dos.a65:3307
 94A3  6B        TZA                  | /home/lgb/prog_here/mega65-core-lgb/src/kickstart_dos.a65:3309
 94A4  29 01     AND   #$01         | /home/lgb/prog_here/mega65-core-lgb/src/kickstart_dos.a65:3310
 94A6  D0 0C     BNE   $00B4          | /home/lgb/prog_here/mega65-core-lgb/src/kickstart_dos.a65:3311
 94A8  6B        TZA                  | /home/lgb/prog_here/mega65-core-lgb/src/kickstart_dos.a65:3312
 94A9  4A        LSR                  | /home/lgb/prog_here/mega65-core-lgb/src/kickstart_dos.a65:3313
 94AA  4B        TAZ                  | /home/lgb/prog_here/mega65-core-lgb/src/kickstart_dos.a65:3314
 94AB  4E 0D CE  LSR   $CE0D          | /home/lgb/prog_here/mega65-core-lgb/src/kickstart_dos.a65:3315
 94AE  6E 0C CE  ROR   $CE0C          | /home/lgb/prog_here/mega65-core-lgb/src/kickstart_dos.a65:3316
 94B1  4C A3 94  JMP   $94A3          | /home/lgb/prog_here/mega65-core-lgb/src/kickstart_dos.a65:3317
 94B4  AE F5 BC  LDX   $BCF5          | /home/lgb/prog_here/mega65-core-lgb/src/kickstart_dos.a65:3323
 94B7  A0 00     LDY   #$00         | /home/lgb/prog_here/mega65-core-lgb/src/kickstart_dos.a65:3324
 94B9  BD BA BC  LDA   $BCBA, X       | /home/lgb/prog_here/mega65-core-lgb/src/kickstart_dos.a65:3326
 94BC  99 08 CE  STA   $CE08, Y       | /home/lgb/prog_here/mega65-core-lgb/src/kickstart_dos.a65:3327
 94BF  E8        INX                  | /home/lgb/prog_here/mega65-core-lgb/src/kickstart_dos.a65:3328
 94C0  C8        INY                  | /home/lgb/prog_here/mega65-core-lgb/src/kickstart_dos.a65:3329
 94C1  C0 04     CPY   #$04         | /home/lgb/prog_here/mega65-core-lgb/src/kickstart_dos.a65:3330
 94C3  D0 F4     BNE   $00B9          | /home/lgb/prog_here/mega65-core-lgb/src/kickstart_dos.a65:3331
 94C5  AE F5 BC  LDX   $BCF5          | /home/lgb/prog_here/mega65-core-lgb/src/kickstart_dos.a65:3339
 94C8  A0 00     LDY   #$00         | /home/lgb/prog_here/mega65-core-lgb/src/kickstart_dos.a65:3340
 94CA  BD BA BC  LDA   $BCBA, X       | /home/lgb/prog_here/mega65-core-lgb/src/kickstart_dos.a65:3342
 94CD  D9 08 CE  CMP   $CE08, Y       | /home/lgb/prog_here/mega65-core-lgb/src/kickstart_dos.a65:3343
 94D0  D3 E6 00  BNE   $95B8          | /home/lgb/prog_here/mega65-core-lgb/src/kickstart_dos.a65:3344
 94D3  E8        INX                  | /home/lgb/prog_here/mega65-core-lgb/src/kickstart_dos.a65:3345
 94D4  C8        INY                  | /home/lgb/prog_here/mega65-core-lgb/src/kickstart_dos.a65:3346
 94D5  C0 04     CPY   #$04         | /home/lgb/prog_here/mega65-core-lgb/src/kickstart_dos.a65:3347
 94D7  D0 F1     BNE   $00CA          | /home/lgb/prog_here/mega65-core-lgb/src/kickstart_dos.a65:3348
 94D9  EE 0E CE  INC   $CE0E          | /home/lgb/prog_here/mega65-core-lgb/src/kickstart_dos.a65:3352
 94DC  D0 03     BNE   $00E1          | /home/lgb/prog_here/mega65-core-lgb/src/kickstart_dos.a65:3353
 94DE  EE 0F CE  INC   $CE0F          | /home/lgb/prog_here/mega65-core-lgb/src/kickstart_dos.a65:3354
 94E1  18        CLC                  | /home/lgb/prog_here/mega65-core-lgb/src/kickstart_dos.a65:3359
 94E2  AD 08 CE  LDA   $CE08          | /home/lgb/prog_here/mega65-core-lgb/src/kickstart_dos.a65:3360
 94E5  69 01     ADC   #$01         | /home/lgb/prog_here/mega65-core-lgb/src/kickstart_dos.a65:3361
 94E7  8D 08 CE  STA   $CE08          | /home/lgb/prog_here/mega65-core-lgb/src/kickstart_dos.a65:3362
 94EA  AD 09 CE  LDA   $CE09          | /home/lgb/prog_here/mega65-core-lgb/src/kickstart_dos.a65:3363
 94ED  69 00     ADC   #$00         | /home/lgb/prog_here/mega65-core-lgb/src/kickstart_dos.a65:3364
 94EF  8D 09 CE  STA   $CE09          | /home/lgb/prog_here/mega65-core-lgb/src/kickstart_dos.a65:3365
 94F2  AD 0A CE  LDA   $CE0A          | /home/lgb/prog_here/mega65-core-lgb/src/kickstart_dos.a65:3366
 94F5  69 00     ADC   #$00         | /home/lgb/prog_here/mega65-core-lgb/src/kickstart_dos.a65:3367
 94F7  8D 0A CE  STA   $CE0A          | /home/lgb/prog_here/mega65-core-lgb/src/kickstart_dos.a65:3368
 94FA  AD 0B CE  LDA   $CE0B          | /home/lgb/prog_here/mega65-core-lgb/src/kickstart_dos.a65:3369
 94FD  69 00     ADC   #$00         | /home/lgb/prog_here/mega65-core-lgb/src/kickstart_dos.a65:3370
 94FF  8D 0B CE  STA   $CE0B          | /home/lgb/prog_here/mega65-core-lgb/src/kickstart_dos.a65:3371
 9502  20 59 92  JSR   $9259          | /home/lgb/prog_here/mega65-core-lgb/src/kickstart_dos.a65:3373
 9505  B0 BE     BCS   $00C5          | /home/lgb/prog_here/mega65-core-lgb/src/kickstart_dos.a65:3374
 9507  A9 00     LDA   #$00         | /home/lgb/prog_here/mega65-core-lgb/src/kickstart_dos.a65:3379
 9509  8D F6 BC  STA   $BCF6          | /home/lgb/prog_here/mega65-core-lgb/src/kickstart_dos.a65:3380
 950C  20 4F A6  JSR   $A64F          | /home/lgb/prog_here/mega65-core-lgb/src/kickstart_dos.a65:3382
 950F  00 64 6F 73 5F 64 38 31 61 74 74 61 63 68 20 3C  |.dos_d81attach <|
 951F  6D 65 61 73 75 72 65 64 20 65 6E 64 20 6F 66 20  |measured end of |
 952F  69 6D 61 67 65 3E 00                             |image>.         |
 9536  20 B7 8B  JSR   $8BB7          | /home/lgb/prog_here/mega65-core-lgb/src/kickstart_dos.a65:3385
 9539  AD 0C CE  LDA   $CE0C          | /home/lgb/prog_here/mega65-core-lgb/src/kickstart_dos.a65:3390
 953C  CD 0E CE  CMP   $CE0E          | /home/lgb/prog_here/mega65-core-lgb/src/kickstart_dos.a65:3391
 953F  D3 4F 00  BNE   $9590          | /home/lgb/prog_here/mega65-core-lgb/src/kickstart_dos.a65:3392
 9542  AD 0D CE  LDA   $CE0D          | /home/lgb/prog_here/mega65-core-lgb/src/kickstart_dos.a65:3394
 9545  CD 0F CE  CMP   $CE0F          | /home/lgb/prog_here/mega65-core-lgb/src/kickstart_dos.a65:3395
 9548  D3 46 00  BNE   $9590          | /home/lgb/prog_here/mega65-core-lgb/src/kickstart_dos.a65:3396
 954B  AE F5 BC  LDX   $BCF5          | /home/lgb/prog_here/mega65-core-lgb/src/kickstart_dos.a65:3403
 954E  A0 00     LDY   #$00         | /home/lgb/prog_here/mega65-core-lgb/src/kickstart_dos.a65:3404
 9550  BD B6 BC  LDA   $BCB6, X       | /home/lgb/prog_here/mega65-core-lgb/src/kickstart_dos.a65:3406
 9553  99 AF BC  STA   $BCAF, Y       | /home/lgb/prog_here/mega65-core-lgb/src/kickstart_dos.a65:3407
 9556  E8        INX                  | /home/lgb/prog_here/mega65-core-lgb/src/kickstart_dos.a65:3408
 9557  C8        INY                  | /home/lgb/prog_here/mega65-core-lgb/src/kickstart_dos.a65:3409
 9558  C0 04     CPY   #$04         | /home/lgb/prog_here/mega65-core-lgb/src/kickstart_dos.a65:3410
 955A  D0 F4     BNE   $0050          | /home/lgb/prog_here/mega65-core-lgb/src/kickstart_dos.a65:3411
 955C  20 FE 8A  JSR   $8AFE          | /home/lgb/prog_here/mega65-core-lgb/src/kickstart_dos.a65:3413
 955F  20 0D 9A  JSR   $9A0D          | /home/lgb/prog_here/mega65-core-lgb/src/kickstart_dos.a65:3414
 9562  A2 03     LDX   #$03         | /home/lgb/prog_here/mega65-core-lgb/src/kickstart_dos.a65:3418
 9564  BD 81 D6  LDA   $D681, X       | /home/lgb/prog_here/mega65-core-lgb/src/kickstart_dos.a65:3419
 9567  9D 8C D6  STA   $D68C, X       | /home/lgb/prog_here/mega65-core-lgb/src/kickstart_dos.a65:3420
 956A  CA        DEX                  | /home/lgb/prog_here/mega65-core-lgb/src/kickstart_dos.a65:3421
 956B  10 F7     BPL   $0064          | /home/lgb/prog_here/mega65-core-lgb/src/kickstart_dos.a65:3422
 956D  A9 03     LDA   #$03         | /home/lgb/prog_here/mega65-core-lgb/src/kickstart_dos.a65:3427
 956F  8D 8B D6  STA   $D68B          | /home/lgb/prog_here/mega65-core-lgb/src/kickstart_dos.a65:3428
 9572  20 4F A6  JSR   $A64F          | /home/lgb/prog_here/mega65-core-lgb/src/kickstart_dos.a65:3430
 9575  00 64 6F 73 5F 64 38 31 61 74 74 61 63 68 20 3C  |.dos_d81attach <|
 9585  73 75 63 63 65 73 73 3E 00                       |success>.       |
 958E  38        SEC                  | /home/lgb/prog_here/mega65-core-lgb/src/kickstart_dos.a65:3433
 958F  60        RTS                  | /home/lgb/prog_here/mega65-core-lgb/src/kickstart_dos.a65:3434
 9590  20 4F A6  JSR   $A64F          | /home/lgb/prog_here/mega65-core-lgb/src/kickstart_dos.a65:3439
 9593  00 64 6F 73 5F 64 38 31 61 74 74 61 63 68 20 3C  |.dos_d81attach <|
 95A3  77 72 6F 6E 67 20 6C 65 6E 67 74 68 3E 00        |wrong length>.  |
 95B1  A9 8A     LDA   #$8A         | /home/lgb/prog_here/mega65-core-lgb/src/kickstart_dos.a65:3442
 95B3  8D F6 BC  STA   $BCF6          | /home/lgb/prog_here/mega65-core-lgb/src/kickstart_dos.a65:3443
 95B6  18        CLC                  | /home/lgb/prog_here/mega65-core-lgb/src/kickstart_dos.a65:3444
 95B7  60        RTS                  | /home/lgb/prog_here/mega65-core-lgb/src/kickstart_dos.a65:3445
 95B8  20 4F A6  JSR   $A64F          | /home/lgb/prog_here/mega65-core-lgb/src/kickstart_dos.a65:3450
 95BB  00 64 6F 73 5F 64 38 31 61 74 74 61 63 68 20 3C  |.dos_d81attach <|
 95CB  66 72 61 67 6D 65 6E 74 65 64 3E 00              |fragmented>.    |
 95D7  A9 8B     LDA   #$8B         | /home/lgb/prog_here/mega65-core-lgb/src/kickstart_dos.a65:3453
 95D9  8D F6 BC  STA   $BCF6          | /home/lgb/prog_here/mega65-core-lgb/src/kickstart_dos.a65:3454
 95DC  18        CLC                  | /home/lgb/prog_here/mega65-core-lgb/src/kickstart_dos.a65:3455
 95DD  60        RTS                  | /home/lgb/prog_here/mega65-core-lgb/src/kickstart_dos.a65:3456
 95DE  20 4F A6  JSR   $A64F          | /home/lgb/prog_here/mega65-core-lgb/src/kickstart_dos.a65:3461
 95E1  00 64 6F 73 5F 64 38 31 61 74 74 61 63 68 20 3C  |.dos_d81attach <|
 95F1  66 69 6C 65 20 6E 6F 74 20 66 6F 75 6E 64 3E 00  |file not found>.|
 9601  18        CLC                  | /home/lgb/prog_here/mega65-core-lgb/src/kickstart_dos.a65:3464
 9602  60        RTS                  | /home/lgb/prog_here/mega65-core-lgb/src/kickstart_dos.a65:3465
 9603  48        PHA                  | /home/lgb/prog_here/mega65-core-lgb/src/kickstart_dos.a65:3471
 9604  A9 00     LDA   #$00         | /home/lgb/prog_here/mega65-core-lgb/src/kickstart_dos.a65:3472
 9606  AA        TAX                  | /home/lgb/prog_here/mega65-core-lgb/src/kickstart_dos.a65:3473
 9607  A8        TAY                  | /home/lgb/prog_here/mega65-core-lgb/src/kickstart_dos.a65:3474
 9608  4B        TAZ                  | /home/lgb/prog_here/mega65-core-lgb/src/kickstart_dos.a65:3475
 9609  68        PLA                  | /home/lgb/prog_here/mega65-core-lgb/src/kickstart_dos.a65:3476
 960A  18        CLC                  | /home/lgb/prog_here/mega65-core-lgb/src/kickstart_dos.a65:3484
 960B  6D 81 D6  ADC   $D681          | /home/lgb/prog_here/mega65-core-lgb/src/kickstart_dos.a65:3485
 960E  8D 81 D6  STA   $D681          | /home/lgb/prog_here/mega65-core-lgb/src/kickstart_dos.a65:3486
 9611  8A        TXA                  | /home/lgb/prog_here/mega65-core-lgb/src/kickstart_dos.a65:3487
 9612  6D 82 D6  ADC   $D682          | /home/lgb/prog_here/mega65-core-lgb/src/kickstart_dos.a65:3488
 9615  8D 82 D6  STA   $D682          | /home/lgb/prog_here/mega65-core-lgb/src/kickstart_dos.a65:3489
 9618  98        TYA                  | /home/lgb/prog_here/mega65-core-lgb/src/kickstart_dos.a65:3490
 9619  6D 83 D6  ADC   $D683          | /home/lgb/prog_here/mega65-core-lgb/src/kickstart_dos.a65:3491
 961C  8D 83 D6  STA   $D683          | /home/lgb/prog_here/mega65-core-lgb/src/kickstart_dos.a65:3492
 961F  6B        TZA                  | /home/lgb/prog_here/mega65-core-lgb/src/kickstart_dos.a65:3493
 9620  6D 84 D6  ADC   $D684          | /home/lgb/prog_here/mega65-core-lgb/src/kickstart_dos.a65:3494
 9623  8D 84 D6  STA   $D684          | /home/lgb/prog_here/mega65-core-lgb/src/kickstart_dos.a65:3495
 9626  A3 00     LDZ   #$00         | /home/lgb/prog_here/mega65-core-lgb/src/kickstart_dos.a65:3496
 9628  60        RTS                  | /home/lgb/prog_here/mega65-core-lgb/src/kickstart_dos.a65:3497
 9629  0D 04 BC  ORA   $BC04          | /home/lgb/prog_here/mega65-core-lgb/src/kickstart_dos.a65:3503
 962C  A8        TAY                  | /home/lgb/prog_here/mega65-core-lgb/src/kickstart_dos.a65:3504
 962D  A2 00     LDX   #$00         | /home/lgb/prog_here/mega65-core-lgb/src/kickstart_dos.a65:3505
 962F  18        CLC                  | /home/lgb/prog_here/mega65-core-lgb/src/kickstart_dos.a65:3506
 9630  08        PHP                  | /home/lgb/prog_here/mega65-core-lgb/src/kickstart_dos.a65:3507
 9631  28        PLP                  | /home/lgb/prog_here/mega65-core-lgb/src/kickstart_dos.a65:3508
 9632  BD 81 D6  LDA   $D681, X       | /home/lgb/prog_here/mega65-core-lgb/src/kickstart_dos.a65:3509
 9635  79 00 BB  ADC   $BB00, Y       | /home/lgb/prog_here/mega65-core-lgb/src/kickstart_dos.a65:3510
 9638  9D 81 D6  STA   $D681, X       | /home/lgb/prog_here/mega65-core-lgb/src/kickstart_dos.a65:3511
 963B  08        PHP                  | /home/lgb/prog_here/mega65-core-lgb/src/kickstart_dos.a65:3512
 963C  C8        INY                  | /home/lgb/prog_here/mega65-core-lgb/src/kickstart_dos.a65:3513
 963D  E8        INX                  | /home/lgb/prog_here/mega65-core-lgb/src/kickstart_dos.a65:3514
 963E  E0 04     CPX   #$04         | /home/lgb/prog_here/mega65-core-lgb/src/kickstart_dos.a65:3515
 9640  D0 EF     BNE   $0031          | /home/lgb/prog_here/mega65-core-lgb/src/kickstart_dos.a65:3516
 9642  28        PLP                  | /home/lgb/prog_here/mega65-core-lgb/src/kickstart_dos.a65:3517
 9643  60        RTS                  | /home/lgb/prog_here/mega65-core-lgb/src/kickstart_dos.a65:3518
 9644  C9 20     CMP   #$20         | /home/lgb/prog_here/mega65-core-lgb/src/kickstart_dos.a65:3525
 9646  90 05     BCC   $004D          | /home/lgb/prog_here/mega65-core-lgb/src/kickstart_dos.a65:3526
 9648  C9 7F     CMP   #$7F         | /home/lgb/prog_here/mega65-core-lgb/src/kickstart_dos.a65:3527
 964A  B0 01     BCS   $004D          | /home/lgb/prog_here/mega65-core-lgb/src/kickstart_dos.a65:3528
 964C  60        RTS                  | /home/lgb/prog_here/mega65-core-lgb/src/kickstart_dos.a65:3529
 964D  A9 3F     LDA   #$3F         | /home/lgb/prog_here/mega65-core-lgb/src/kickstart_dos.a65:3531
 964F  60        RTS                  | /home/lgb/prog_here/mega65-core-lgb/src/kickstart_dos.a65:3532
 9650  20 88 9A  JSR   $9A88          | /home/lgb/prog_here/mega65-core-lgb/src/kickstart_mem.a65:3
 9653  A2 80     LDX   #$80         | /home/lgb/prog_here/mega65-core-lgb/src/kickstart_mem.a65:4
 9655  A0 96     LDY   #$96         | /home/lgb/prog_here/mega65-core-lgb/src/kickstart_mem.a65:5
 9657  20 1A A3  JSR   $A31A          | /home/lgb/prog_here/mega65-core-lgb/src/kickstart_mem.a65:6
 965A  A0 00     LDY   #$00         | /home/lgb/prog_here/mega65-core-lgb/src/kickstart_mem.a65:7
 965C  AB 49 D6  LDZ   $D649          | /home/lgb/prog_here/mega65-core-lgb/src/kickstart_mem.a65:9
 965F  20 AC A3  JSR   $A3AC          | /home/lgb/prog_here/mega65-core-lgb/src/kickstart_mem.a65:10
 9662  AB 48 D6  LDZ   $D648          | /home/lgb/prog_here/mega65-core-lgb/src/kickstart_mem.a65:11
 9665  20 AC A3  JSR   $A3AC          | /home/lgb/prog_here/mega65-core-lgb/src/kickstart_mem.a65:12
 9668  AB 4F D6  LDZ   $D64F          | /home/lgb/prog_here/mega65-core-lgb/src/kickstart_mem.a65:14
 966B  20 AC A3  JSR   $A3AC          | /home/lgb/prog_here/mega65-core-lgb/src/kickstart_mem.a65:15
 966E  AB 4A D6  LDZ   $D64A          | /home/lgb/prog_here/mega65-core-lgb/src/kickstart_mem.a65:16
 9671  20 AC A3  JSR   $A3AC          | /home/lgb/prog_here/mega65-core-lgb/src/kickstart_mem.a65:17
 9674  AB 49 D6  LDZ   $D649          | /home/lgb/prog_here/mega65-core-lgb/src/kickstart_mem.a65:18
 9677  20 AC A3  JSR   $A3AC          | /home/lgb/prog_here/mega65-core-lgb/src/kickstart_mem.a65:19
 967A  EE 20 D0  INC   $D020          | /home/lgb/prog_here/mega65-core-lgb/src/kickstart_mem.a65:21
 967D  4C 7A 96  JMP   $967A          | /home/lgb/prog_here/mega65-core-lgb/src/kickstart_mem.a65:22
 9680  50 41 47 45 20 46 41 55 4C 54 3A 20 50 43 3D 24  |PAGE FAULT: PC=$|
 9690  24 24 24 2C 20 4D 41 50 3D 24 24 2E 24 24 24 24  |$$$, MAP=$$.$$$$|
 96A0  2E 30 30 20 20 20 20 20                          |.00             |
 96A8  78        SEI                  | /home/lgb/prog_here/mega65-core-lgb/src/kickstart_mem.a65:27
 96A9  D8        CLD                  | /home/lgb/prog_here/mega65-core-lgb/src/kickstart_mem.a65:28
 96AA  29 FE     AND   #$FE         | /home/lgb/prog_here/mega65-core-lgb/src/kickstart_mem.a65:29
 96AC  AA        TAX                  | /home/lgb/prog_here/mega65-core-lgb/src/kickstart_mem.a65:30
 96AD  7C B0 96  JMP   ($96B0, X)     | /home/lgb/prog_here/mega65-core-lgb/src/kickstart_mem.a65:31
 96B0  38 97 30 97 73 82 73 82 73 82 73 82 73 82 73 82  |8.0.s.s.s.s.s.s.|
 96C0  73 82 73 82 73 82 73 82 73 82 73 82 73 82 73 82  |s.s.s.s.s.s.s.s.|
 96D0  73 82 73 82 73 82 73 82 73 82 73 82 73 82 73 82  |s.s.s.s.s.s.s.s.|
 96E0  73 82 73 82 73 82 73 82 73 82 73 82 73 82 73 82  |s.s.s.s.s.s.s.s.|
 96F0  73 82 73 82 73 82 73 82 73 82 73 82 73 82 73 82  |s.s.s.s.s.s.s.s.|
 9700  73 82 73 82 73 82 73 82 73 82 73 82 73 82 73 82  |s.s.s.s.s.s.s.s.|
 9710  73 82 73 82 73 82 73 82 73 82 73 82 73 82 73 82  |s.s.s.s.s.s.s.s.|
 9720  73 82 73 82 73 82 73 82 73 82 73 82 73 82 73 82  |s.s.s.s.s.s.s.s.|
 9730  A9 04     LDA   #$04         | /home/lgb/prog_here/mega65-core-lgb/src/kickstart_mem.a65:115
 9732  1C 7D D6  TRB   $D67D          | /home/lgb/prog_here/mega65-core-lgb/src/kickstart_mem.a65:116
 9735  4C 10 82  JMP   $8210          | /home/lgb/prog_here/mega65-core-lgb/src/kickstart_mem.a65:117
 9738  A9 04     LDA   #$04         | /home/lgb/prog_here/mega65-core-lgb/src/kickstart_mem.a65:120
 973A  0C 7D D6  TSB   $D67D          | /home/lgb/prog_here/mega65-core-lgb/src/kickstart_mem.a65:121
 973D  4C 10 82  JMP   $8210          | /home/lgb/prog_here/mega65-core-lgb/src/kickstart_mem.a65:122
 9740  A9 00     LDA   #$00         | /home/lgb/prog_here/mega65-core-lgb/src/kickstart_task.a65:11
 9742  60        RTS                  | /home/lgb/prog_here/mega65-core-lgb/src/kickstart_task.a65:12
 9743  A9 00     LDA   #$00         | /home/lgb/prog_here/mega65-core-lgb/src/kickstart_task.a65:20
 9745  8D 40 D6  STA   $D640          | /home/lgb/prog_here/mega65-core-lgb/src/kickstart_task.a65:21
 9748  8D 41 D6  STA   $D641          | /home/lgb/prog_here/mega65-core-lgb/src/kickstart_task.a65:22
 974B  8D 42 D6  STA   $D642          | /home/lgb/prog_here/mega65-core-lgb/src/kickstart_task.a65:23
 974E  8D 43 D6  STA   $D643          | /home/lgb/prog_here/mega65-core-lgb/src/kickstart_task.a65:24
 9751  8D 44 D6  STA   $D644          | /home/lgb/prog_here/mega65-core-lgb/src/kickstart_task.a65:25
 9754  A9 FF     LDA   #$FF         | /home/lgb/prog_here/mega65-core-lgb/src/kickstart_task.a65:26
 9756  8D 45 D6  STA   $D645          | /home/lgb/prog_here/mega65-core-lgb/src/kickstart_task.a65:27
 9759  A9 01     LDA   #$01         | /home/lgb/prog_here/mega65-core-lgb/src/kickstart_task.a65:28
 975B  8D 46 D6  STA   $D646          | /home/lgb/prog_here/mega65-core-lgb/src/kickstart_task.a65:29
 975E  A9 F7     LDA   #$F7         | /home/lgb/prog_here/mega65-core-lgb/src/kickstart_task.a65:30
 9760  8D 47 D6  STA   $D647          | /home/lgb/prog_here/mega65-core-lgb/src/kickstart_task.a65:31
 9763  A9 00     LDA   #$00         | /home/lgb/prog_here/mega65-core-lgb/src/kickstart_task.a65:32
 9765  8D 4A D6  STA   $D64A          | /home/lgb/prog_here/mega65-core-lgb/src/kickstart_task.a65:33
 9768  8D 4B D6  STA   $D64B          | /home/lgb/prog_here/mega65-core-lgb/src/kickstart_task.a65:34
 976B  8D 4C D6  STA   $D64C          | /home/lgb/prog_here/mega65-core-lgb/src/kickstart_task.a65:35
 976E  8D 4D D6  STA   $D64D          | /home/lgb/prog_here/mega65-core-lgb/src/kickstart_task.a65:36
 9771  8D 4E D6  STA   $D64E          | /home/lgb/prog_here/mega65-core-lgb/src/kickstart_task.a65:37
 9774  8D 4F D6  STA   $D64F          | /home/lgb/prog_here/mega65-core-lgb/src/kickstart_task.a65:38
 9777  A9 3F     LDA   #$3F         | /home/lgb/prog_here/mega65-core-lgb/src/kickstart_task.a65:39
 9779  8D 50 D6  STA   $D650          | /home/lgb/prog_here/mega65-core-lgb/src/kickstart_task.a65:40
 977C  8D 51 D6  STA   $D651          | /home/lgb/prog_here/mega65-core-lgb/src/kickstart_task.a65:41
 977F  A9 00     LDA   #$00         | /home/lgb/prog_here/mega65-core-lgb/src/kickstart_task.a65:43
 9781  8D 52 D6  STA   $D652          | /home/lgb/prog_here/mega65-core-lgb/src/kickstart_task.a65:44
 9784  A9 82     LDA   #$82         | /home/lgb/prog_here/mega65-core-lgb/src/kickstart_task.a65:47
 9786  8D 80 D6  STA   $D680          | /home/lgb/prog_here/mega65-core-lgb/src/kickstart_task.a65:48
 9789  A9 01     LDA   #$01         | /home/lgb/prog_here/mega65-core-lgb/src/kickstart_task.a65:51
 978B  1C 30 D0  TRB   $D030          | /home/lgb/prog_here/mega65-core-lgb/src/kickstart_task.a65:52
 978E  60        RTS                  | /home/lgb/prog_here/mega65-core-lgb/src/kickstart_task.a65:55
 978F  A2 FC     LDX   #$FC         | /home/lgb/prog_here/mega65-core-lgb/src/kickstart_task.a65:63
 9791  A0 FF     LDY   #$FF         | /home/lgb/prog_here/mega65-core-lgb/src/kickstart_task.a65:64
 9793  A3 02     LDZ   #$02         | /home/lgb/prog_here/mega65-core-lgb/src/kickstart_task.a65:65
 9795  A9 00     LDA   #$00         | /home/lgb/prog_here/mega65-core-lgb/src/kickstart_task.a65:66
 9797  20 18 A4  JSR   $A418          | /home/lgb/prog_here/mega65-core-lgb/src/kickstart_task.a65:67
 979A  AD 00 BC  LDA   $BC00          | /home/lgb/prog_here/mega65-core-lgb/src/kickstart_task.a65:68
 979D  8D 48 D6  STA   $D648          | /home/lgb/prog_here/mega65-core-lgb/src/kickstart_task.a65:69
 97A0  A2 FC     LDX   #$FC         | /home/lgb/prog_here/mega65-core-lgb/src/kickstart_task.a65:70
 97A2  E8        INX                  | /home/lgb/prog_here/mega65-core-lgb/src/kickstart_task.a65:71
 97A3  A0 FF     LDY   #$FF         | /home/lgb/prog_here/mega65-core-lgb/src/kickstart_task.a65:72
 97A5  A3 02     LDZ   #$02         | /home/lgb/prog_here/mega65-core-lgb/src/kickstart_task.a65:73
 97A7  A9 00     LDA   #$00         | /home/lgb/prog_here/mega65-core-lgb/src/kickstart_task.a65:74
 97A9  20 18 A4  JSR   $A418          | /home/lgb/prog_here/mega65-core-lgb/src/kickstart_task.a65:75
 97AC  AD 00 BC  LDA   $BC00          | /home/lgb/prog_here/mega65-core-lgb/src/kickstart_task.a65:76
 97AF  8D 49 D6  STA   $D649          | /home/lgb/prog_here/mega65-core-lgb/src/kickstart_task.a65:77
 97B2  60        RTS                  | /home/lgb/prog_here/mega65-core-lgb/src/kickstart_task.a65:79
 97B3  A9 C1     LDA   #$C1         | /home/lgb/prog_here/mega65-core-lgb/src/kickstart_task.a65:89
 97B5  8D 18 03  STA   $0318          | /home/lgb/prog_here/mega65-core-lgb/src/kickstart_task.a65:90
 97B8  A9 FE     LDA   #$FE         | /home/lgb/prog_here/mega65-core-lgb/src/kickstart_task.a65:91
 97BA  8D 19 03  STA   $0319          | /home/lgb/prog_here/mega65-core-lgb/src/kickstart_task.a65:92
 97BD  60        RTS                  | /home/lgb/prog_here/mega65-core-lgb/src/kickstart_task.a65:93
 97BE  A9 00     LDA   #$00         | /home/lgb/prog_here/mega65-core-lgb/src/kickstart_task.a65:106
 97C0  A2 5D     LDX   #$5D         | /home/lgb/prog_here/mega65-core-lgb/src/kickstart_task.a65:107
 97C2  9D 00 D6  STA   $D600, X       | /home/lgb/prog_here/mega65-core-lgb/src/kickstart_task.a65:108
 97C5  E8        INX                  | /home/lgb/prog_here/mega65-core-lgb/src/kickstart_task.a65:109
 97C6  E0 70     CPX   #$70         | /home/lgb/prog_here/mega65-core-lgb/src/kickstart_task.a65:110
 97C8  D0 F8     BNE   $00C2          | /home/lgb/prog_here/mega65-core-lgb/src/kickstart_task.a65:111
 97CA  60        RTS                  | /home/lgb/prog_here/mega65-core-lgb/src/kickstart_task.a65:112
 97CB  A2 00     LDX   #$00         | /home/lgb/prog_here/mega65-core-lgb/src/kickstart_task.a65:120
 97CD  8A        TXA                  | /home/lgb/prog_here/mega65-core-lgb/src/kickstart_task.a65:121
 97CE  9D 00 BD  STA   $BD00, X       | /home/lgb/prog_here/mega65-core-lgb/src/kickstart_task.a65:122
 97D1  E8        INX                  | /home/lgb/prog_here/mega65-core-lgb/src/kickstart_task.a65:123
 97D2  D0 FA     BNE   $00CE          | /home/lgb/prog_here/mega65-core-lgb/src/kickstart_task.a65:124
 97D4  20 BE 97  JSR   $97BE          | /home/lgb/prog_here/mega65-core-lgb/src/kickstart_task.a65:125
 97D7  4C E4 85  JMP   $85E4          | /home/lgb/prog_here/mega65-core-lgb/src/kickstart_task.a65:129
 97DA  20 CB 97  JSR   $97CB          | /home/lgb/prog_here/mega65-core-lgb/src/kickstart_task.a65:135
 97DD  20 40 97  JSR   $9740          | /home/lgb/prog_here/mega65-core-lgb/src/kickstart_task.a65:136
 97E0  8D 00 BD  STA   $BD00          | /home/lgb/prog_here/mega65-core-lgb/src/kickstart_task.a65:137
 97E3  60        RTS                  | /home/lgb/prog_here/mega65-core-lgb/src/kickstart_task.a65:138
 97E4  20 DA 97  JSR   $97DA          | /home/lgb/prog_here/mega65-core-lgb/src/kickstart_task.a65:147
 97E7  20 43 97  JSR   $9743          | /home/lgb/prog_here/mega65-core-lgb/src/kickstart_task.a65:149
 97EA  60        RTS                  | /home/lgb/prog_here/mega65-core-lgb/src/kickstart_task.a65:150
 97EB  AD 6F D0  LDA   $D06F          | /home/lgb/prog_here/mega65-core-lgb/src/kickstart_task.a65:157
 97EE  18        CLC                  | /home/lgb/prog_here/mega65-core-lgb/src/kickstart_task.a65:158
 97EF  69 40     ADC   #$40         | /home/lgb/prog_here/mega65-core-lgb/src/kickstart_task.a65:159
 97F1  8D 6F D0  STA   $D06F          | /home/lgb/prog_here/mega65-core-lgb/src/kickstart_task.a65:160
 97F4  8D 7F D6  STA   $D67F          | /home/lgb/prog_here/mega65-core-lgb/src/kickstart_task.a65:164
 97F7  AD 54 D0  LDA   $D054          | /home/lgb/prog_here/mega65-core-lgb/src/kickstart_task.a65:173
 97FA  49 40     EOR   #$40         | /home/lgb/prog_here/mega65-core-lgb/src/kickstart_task.a65:174
 97FC  8D 54 D0  STA   $D054          | /home/lgb/prog_here/mega65-core-lgb/src/kickstart_task.a65:175
 97FF  AD 31 D0  LDA   $D031          | /home/lgb/prog_here/mega65-core-lgb/src/kickstart_task.a65:179
 9802  09 40     ORA   #$40         | /home/lgb/prog_here/mega65-core-lgb/src/kickstart_task.a65:180
 9804  8D 31 D0  STA   $D031          | /home/lgb/prog_here/mega65-core-lgb/src/kickstart_task.a65:181
 9807  AD 20 D0  LDA   $D020          | /home/lgb/prog_here/mega65-core-lgb/src/kickstart_task.a65:185
 980A  1A        INC                  | /home/lgb/prog_here/mega65-core-lgb/src/kickstart_task.a65:186
 980B  29 0F     AND   #$0F         | /home/lgb/prog_here/mega65-core-lgb/src/kickstart_task.a65:187
 980D  8D 20 D0  STA   $D020          | /home/lgb/prog_here/mega65-core-lgb/src/kickstart_task.a65:188
 9810  8D 7F D6  STA   $D67F          | /home/lgb/prog_here/mega65-core-lgb/src/kickstart_task.a65:192
 9813  AD 40 D6  LDA   $D640          | /home/lgb/prog_here/mega65-core-lgb/src/kickstart_task.a65:199
 9816  8D 72 D6  STA   $D672          | /home/lgb/prog_here/mega65-core-lgb/src/kickstart_task.a65:200
 9819  AD 20 D0  LDA   $D020          | /home/lgb/prog_here/mega65-core-lgb/src/kickstart_task.a65:205
 981C  1A        INC                  | /home/lgb/prog_here/mega65-core-lgb/src/kickstart_task.a65:206
 981D  29 0F     AND   #$0F         | /home/lgb/prog_here/mega65-core-lgb/src/kickstart_task.a65:207
 981F  8D 20 D0  STA   $D020          | /home/lgb/prog_here/mega65-core-lgb/src/kickstart_task.a65:208
 9822  8D 7F D6  STA   $D67F          | /home/lgb/prog_here/mega65-core-lgb/src/kickstart_task.a65:210
 9825  AD 72 D6  LDA   $D672          | /home/lgb/prog_here/mega65-core-lgb/src/kickstart_task.a65:216
 9828  29 40     AND   #$40         | /home/lgb/prog_here/mega65-core-lgb/src/kickstart_task.a65:218
 982A  D0 08     BNE   $0034          | /home/lgb/prog_here/mega65-core-lgb/src/kickstart_task.a65:219
 982C  AD 72 D6  LDA   $D672          | /home/lgb/prog_here/mega65-core-lgb/src/kickstart_task.a65:222
 982F  09 40     ORA   #$40         | /home/lgb/prog_here/mega65-core-lgb/src/kickstart_task.a65:223
 9831  4C 39 98  JMP   $9839          | /home/lgb/prog_here/mega65-core-lgb/src/kickstart_task.a65:224
 9834  AD 72 D6  LDA   $D672          | /home/lgb/prog_here/mega65-core-lgb/src/kickstart_task.a65:227
 9837  29 BF     AND   #$BF         | /home/lgb/prog_here/mega65-core-lgb/src/kickstart_task.a65:228
 9839  8D 72 D6  STA   $D672          | /home/lgb/prog_here/mega65-core-lgb/src/kickstart_task.a65:230
 983C  8D 7F D6  STA   $D67F          | /home/lgb/prog_here/mega65-core-lgb/src/kickstart_task.a65:239
 983F  C9 60     CMP   #$60         | /home/lgb/prog_here/mega65-core-lgb/src/kickstart_sdfat.a65:18
 9841  90 06     BCC   $0049          | /home/lgb/prog_here/mega65-core-lgb/src/kickstart_sdfat.a65:19
 9843  C9 7A     CMP   #$7A         | /home/lgb/prog_here/mega65-core-lgb/src/kickstart_sdfat.a65:20
 9845  B0 02     BCS   $0049          | /home/lgb/prog_here/mega65-core-lgb/src/kickstart_sdfat.a65:21
 9847  29 5F     AND   #$5F         | /home/lgb/prog_here/mega65-core-lgb/src/kickstart_sdfat.a65:22
 9849  60        RTS                  | /home/lgb/prog_here/mega65-core-lgb/src/kickstart_sdfat.a65:23
 984A  20 4F A6  JSR   $A64F          | /home/lgb/prog_here/mega65-core-lgb/src/kickstart_sdfat.a65:37
 984D  00 52 65 73 65 74 74 69 6E 67 20 53 44 43 41 52  |.Resetting SDCAR|
 985D  44 00                                            |D.              |
 985F  20 99 98  JSR   $9899          | /home/lgb/prog_here/mega65-core-lgb/src/kickstart_sdfat.a65:40
 9862  B0 1D     BCS   $0081          | /home/lgb/prog_here/mega65-core-lgb/src/kickstart_sdfat.a65:41
 9864  20 4F A6  JSR   $A64F          | /home/lgb/prog_here/mega65-core-lgb/src/kickstart_sdfat.a65:42
 9867  00 46 41 49 4C 45 44 20 72 65 73 65 74 74 69 6E  |.FAILED resettin|
 9877  67 20 53 44 43 41 52 44 00                       |g SDCARD.       |
 9880  60        RTS                  | /home/lgb/prog_here/mega65-core-lgb/src/kickstart_sdfat.a65:44
 9881  A2 56     LDX   #$56         | /home/lgb/prog_here/mega65-core-lgb/src/kickstart_sdfat.a65:46
 9883  A0 AA     LDY   #$AA         | /home/lgb/prog_here/mega65-core-lgb/src/kickstart_sdfat.a65:47
 9885  20 1A A3  JSR   $A31A          | /home/lgb/prog_here/mega65-core-lgb/src/kickstart_sdfat.a65:48
 9888  A9 00     LDA   #$00         | /home/lgb/prog_here/mega65-core-lgb/src/kickstart_sdfat.a65:52
 988A  8D 81 D6  STA   $D681          | /home/lgb/prog_here/mega65-core-lgb/src/kickstart_sdfat.a65:53
 988D  8D 82 D6  STA   $D682          | /home/lgb/prog_here/mega65-core-lgb/src/kickstart_sdfat.a65:54
 9890  8D 83 D6  STA   $D683          | /home/lgb/prog_here/mega65-core-lgb/src/kickstart_sdfat.a65:55
 9893  8D 81 D6  STA   $D681          | /home/lgb/prog_here/mega65-core-lgb/src/kickstart_sdfat.a65:56
 9896  4C 2F 99  JMP   $992F          | /home/lgb/prog_here/mega65-core-lgb/src/kickstart_sdfat.a65:58
 9899  A9 42     LDA   #$42         | /home/lgb/prog_here/mega65-core-lgb/src/kickstart_sdfat.a65:75
 989B  8D 80 D6  STA   $D680          | /home/lgb/prog_here/mega65-core-lgb/src/kickstart_sdfat.a65:76
 989E  A9 00     LDA   #$00         | /home/lgb/prog_here/mega65-core-lgb/src/kickstart_sdfat.a65:82
 98A0  8D 80 D6  STA   $D680          | /home/lgb/prog_here/mega65-core-lgb/src/kickstart_sdfat.a65:83
 98A3  20 F5 98  JSR   $98F5          | /home/lgb/prog_here/mega65-core-lgb/src/kickstart_sdfat.a65:84
 98A6  20 03 99  JSR   $9903          | /home/lgb/prog_here/mega65-core-lgb/src/kickstart_sdfat.a65:85
 98A9  B0 03     BCS   $00AE          | /home/lgb/prog_here/mega65-core-lgb/src/kickstart_sdfat.a65:86
 98AB  D0 F9     BNE   $00A6          | /home/lgb/prog_here/mega65-core-lgb/src/kickstart_sdfat.a65:87
 98AD  60        RTS                  | /home/lgb/prog_here/mega65-core-lgb/src/kickstart_sdfat.a65:88
 98AE  A9 01     LDA   #$01         | /home/lgb/prog_here/mega65-core-lgb/src/kickstart_sdfat.a65:93
 98B0  8D 80 D6  STA   $D680          | /home/lgb/prog_here/mega65-core-lgb/src/kickstart_sdfat.a65:94
 98B3  20 F5 98  JSR   $98F5          | /home/lgb/prog_here/mega65-core-lgb/src/kickstart_sdfat.a65:95
 98B6  20 03 99  JSR   $9903          | /home/lgb/prog_here/mega65-core-lgb/src/kickstart_sdfat.a65:96
 98B9  B0 03     BCS   $00BE          | /home/lgb/prog_here/mega65-core-lgb/src/kickstart_sdfat.a65:97
 98BB  D0 F9     BNE   $00B6          | /home/lgb/prog_here/mega65-core-lgb/src/kickstart_sdfat.a65:98
 98BD  60        RTS                  | /home/lgb/prog_here/mega65-core-lgb/src/kickstart_sdfat.a65:99
 98BE  20 D9 98  JSR   $98D9          | /home/lgb/prog_here/mega65-core-lgb/src/kickstart_sdfat.a65:105
 98C1  20 1F 99  JSR   $991F          | /home/lgb/prog_here/mega65-core-lgb/src/kickstart_sdfat.a65:107
 98C4  A9 02     LDA   #$02         | /home/lgb/prog_here/mega65-core-lgb/src/kickstart_sdfat.a65:111
 98C6  8D 80 D6  STA   $D680          | /home/lgb/prog_here/mega65-core-lgb/src/kickstart_sdfat.a65:112
 98C9  20 F5 98  JSR   $98F5          | /home/lgb/prog_here/mega65-core-lgb/src/kickstart_sdfat.a65:113
 98CC  AD 80 D6  LDA   $D680          | /home/lgb/prog_here/mega65-core-lgb/src/kickstart_sdfat.a65:116
 98CF  20 03 99  JSR   $9903          | /home/lgb/prog_here/mega65-core-lgb/src/kickstart_sdfat.a65:117
 98D2  B0 03     BCS   $00D7          | /home/lgb/prog_here/mega65-core-lgb/src/kickstart_sdfat.a65:118
 98D4  D0 F6     BNE   $00CC          | /home/lgb/prog_here/mega65-core-lgb/src/kickstart_sdfat.a65:119
 98D6  60        RTS                  | /home/lgb/prog_here/mega65-core-lgb/src/kickstart_sdfat.a65:121
 98D7  38        SEC                  | /home/lgb/prog_here/mega65-core-lgb/src/kickstart_sdfat.a65:124
 98D8  60        RTS                  | /home/lgb/prog_here/mega65-core-lgb/src/kickstart_sdfat.a65:125
 98D9  20 F5 98  JSR   $98F5          | /home/lgb/prog_here/mega65-core-lgb/src/kickstart_sdfat.a65:134
 98DC  EE 20 D0  INC   $D020          | /home/lgb/prog_here/mega65-core-lgb/src/kickstart_sdfat.a65:137
 98DF  20 1B A5  JSR   $A51B          | /home/lgb/prog_here/mega65-core-lgb/src/kickstart_sdfat.a65:138
 98E2  CE 20 D0  DEC   $D020          | /home/lgb/prog_here/mega65-core-lgb/src/kickstart_sdfat.a65:139
 98E5  EE 34 BF  INC   $BF34          | /home/lgb/prog_here/mega65-core-lgb/src/kickstart_sdfat.a65:141
 98E8  D0 F2     BNE   $00DC          | /home/lgb/prog_here/mega65-core-lgb/src/kickstart_sdfat.a65:142
 98EA  EE 35 BF  INC   $BF35          | /home/lgb/prog_here/mega65-core-lgb/src/kickstart_sdfat.a65:143
 98ED  D0 ED     BNE   $00DC          | /home/lgb/prog_here/mega65-core-lgb/src/kickstart_sdfat.a65:144
 98EF  EE 36 BF  INC   $BF36          | /home/lgb/prog_here/mega65-core-lgb/src/kickstart_sdfat.a65:145
 98F2  D0 E8     BNE   $00DC          | /home/lgb/prog_here/mega65-core-lgb/src/kickstart_sdfat.a65:146
 98F4  60        RTS                  | /home/lgb/prog_here/mega65-core-lgb/src/kickstart_sdfat.a65:147
 98F5  A9 00     LDA   #$00         | /home/lgb/prog_here/mega65-core-lgb/src/kickstart_sdfat.a65:155
 98F7  8D 34 BF  STA   $BF34          | /home/lgb/prog_here/mega65-core-lgb/src/kickstart_sdfat.a65:156
 98FA  8D 35 BF  STA   $BF35          | /home/lgb/prog_here/mega65-core-lgb/src/kickstart_sdfat.a65:157
 98FD  A9 F7     LDA   #$F7         | /home/lgb/prog_here/mega65-core-lgb/src/kickstart_sdfat.a65:158
 98FF  8D 36 BF  STA   $BF36          | /home/lgb/prog_here/mega65-core-lgb/src/kickstart_sdfat.a65:159
 9902  60        RTS                  | /home/lgb/prog_here/mega65-core-lgb/src/kickstart_sdfat.a65:160
 9903  AD 80 D6  LDA   $D680          | /home/lgb/prog_here/mega65-core-lgb/src/kickstart_sdfat.a65:168
 9906  29 03     AND   #$03         | /home/lgb/prog_here/mega65-core-lgb/src/kickstart_sdfat.a65:169
 9908  F0 13     BEQ   $001D          | /home/lgb/prog_here/mega65-core-lgb/src/kickstart_sdfat.a65:170
 990A  EE 34 BF  INC   $BF34          | /home/lgb/prog_here/mega65-core-lgb/src/kickstart_sdfat.a65:171
 990D  D0 0C     BNE   $001B          | /home/lgb/prog_here/mega65-core-lgb/src/kickstart_sdfat.a65:172
 990F  EE 35 BF  INC   $BF35          | /home/lgb/prog_here/mega65-core-lgb/src/kickstart_sdfat.a65:173
 9912  D0 07     BNE   $001B          | /home/lgb/prog_here/mega65-core-lgb/src/kickstart_sdfat.a65:174
 9914  EE 36 BF  INC   $BF36          | /home/lgb/prog_here/mega65-core-lgb/src/kickstart_sdfat.a65:175
 9917  D0 02     BNE   $001B          | /home/lgb/prog_here/mega65-core-lgb/src/kickstart_sdfat.a65:176
 9919  A9 00     LDA   #$00         | /home/lgb/prog_here/mega65-core-lgb/src/kickstart_sdfat.a65:180
 991B  18        CLC                  | /home/lgb/prog_here/mega65-core-lgb/src/kickstart_sdfat.a65:182
 991C  60        RTS                  | /home/lgb/prog_here/mega65-core-lgb/src/kickstart_sdfat.a65:183
 991D  38        SEC                  | /home/lgb/prog_here/mega65-core-lgb/src/kickstart_sdfat.a65:185
 991E  60        RTS                  | /home/lgb/prog_here/mega65-core-lgb/src/kickstart_sdfat.a65:186
 991F  A9 81     LDA   #$81         | /home/lgb/prog_here/mega65-core-lgb/src/kickstart_sdfat.a65:194
 9921  8D 80 D6  STA   $D680          | /home/lgb/prog_here/mega65-core-lgb/src/kickstart_sdfat.a65:195
 9924  38        SEC                  | /home/lgb/prog_here/mega65-core-lgb/src/kickstart_sdfat.a65:196
 9925  60        RTS                  | /home/lgb/prog_here/mega65-core-lgb/src/kickstart_sdfat.a65:197
 9926  48        PHA                  | /home/lgb/prog_here/mega65-core-lgb/src/kickstart_sdfat.a65:203
 9927  A9 82     LDA   #$82         | /home/lgb/prog_here/mega65-core-lgb/src/kickstart_sdfat.a65:204
 9929  8D 80 D6  STA   $D680          | /home/lgb/prog_here/mega65-core-lgb/src/kickstart_sdfat.a65:205
 992C  68        PLA                  | /home/lgb/prog_here/mega65-core-lgb/src/kickstart_sdfat.a65:206
 992D  38        SEC                  | /home/lgb/prog_here/mega65-core-lgb/src/kickstart_sdfat.a65:207
 992E  60        RTS                  | /home/lgb/prog_here/mega65-core-lgb/src/kickstart_sdfat.a65:208
 992F  20 55 AF  JSR   $AF55          | /home/lgb/prog_here/mega65-core-lgb/src/kickstart_sdfat.a65:225
 9932  AD 80 D6  LDA   $D680          | /home/lgb/prog_here/mega65-core-lgb/src/kickstart_sdfat.a65:229
 9935  29 01     AND   #$01         | /home/lgb/prog_here/mega65-core-lgb/src/kickstart_sdfat.a65:230
 9937  D3 71 00  BNE   $99AA          | /home/lgb/prog_here/mega65-core-lgb/src/kickstart_sdfat.a65:231
 993A  4C 67 99  JMP   $9967          | /home/lgb/prog_here/mega65-core-lgb/src/kickstart_sdfat.a65:234
 993D  A2 88     LDX   #$88         | /home/lgb/prog_here/mega65-core-lgb/src/kickstart_sdfat.a65:246
 993F  A0 AA     LDY   #$AA         | /home/lgb/prog_here/mega65-core-lgb/src/kickstart_sdfat.a65:247
 9941  20 1A A3  JSR   $A31A          | /home/lgb/prog_here/mega65-core-lgb/src/kickstart_sdfat.a65:248
 9944  20 4F A6  JSR   $A64F          | /home/lgb/prog_here/mega65-core-lgb/src/kickstart_sdfat.a65:250
 9947  00 45 52 52 4F 52 20 72 65 64 6F 72 65 61 64 3A  |.ERROR redoread:|
 9957  00                                               |.               |
 9958  A2 F0     LDX   #$F0         | /home/lgb/prog_here/mega65-core-lgb/src/kickstart_sdfat.a65:253
 995A  A0 00     LDY   #$00         | /home/lgb/prog_here/mega65-core-lgb/src/kickstart_sdfat.a65:254
 995C  A3 00     LDZ   #$00         | /home/lgb/prog_here/mega65-core-lgb/src/kickstart_sdfat.a65:255
 995E  1B        INZ                  | /home/lgb/prog_here/mega65-core-lgb/src/kickstart_sdfat.a65:256
 995F  D0 FD     BNE   $005E          | /home/lgb/prog_here/mega65-core-lgb/src/kickstart_sdfat.a65:257
 9961  C8        INY                  | /home/lgb/prog_here/mega65-core-lgb/src/kickstart_sdfat.a65:258
 9962  D0 FA     BNE   $005E          | /home/lgb/prog_here/mega65-core-lgb/src/kickstart_sdfat.a65:259
 9964  E8        INX                  | /home/lgb/prog_here/mega65-core-lgb/src/kickstart_sdfat.a65:260
 9965  D0 F7     BNE   $005E          | /home/lgb/prog_here/mega65-core-lgb/src/kickstart_sdfat.a65:261
 9967  A9 02     LDA   #$02         | /home/lgb/prog_here/mega65-core-lgb/src/kickstart_sdfat.a65:267
 9969  8D 80 D6  STA   $D680          | /home/lgb/prog_here/mega65-core-lgb/src/kickstart_sdfat.a65:268
 996C  20 F5 98  JSR   $98F5          | /home/lgb/prog_here/mega65-core-lgb/src/kickstart_sdfat.a65:272
 996F  20 03 99  JSR   $9903          | /home/lgb/prog_here/mega65-core-lgb/src/kickstart_sdfat.a65:274
 9972  B0 05     BCS   $0079          | /home/lgb/prog_here/mega65-core-lgb/src/kickstart_sdfat.a65:275
 9974  D0 F9     BNE   $006F          | /home/lgb/prog_here/mega65-core-lgb/src/kickstart_sdfat.a65:276
 9976  4C 8C 99  JMP   $998C          | /home/lgb/prog_here/mega65-core-lgb/src/kickstart_sdfat.a65:277
 9979  AD 80 D6  LDA   $D680          | /home/lgb/prog_here/mega65-core-lgb/src/kickstart_sdfat.a65:282
 997C  29 01     AND   #$01         | /home/lgb/prog_here/mega65-core-lgb/src/kickstart_sdfat.a65:283
 997E  D0 EF     BNE   $006F          | /home/lgb/prog_here/mega65-core-lgb/src/kickstart_sdfat.a65:284
 9980  AD 88 D6  LDA   $D688          | /home/lgb/prog_here/mega65-core-lgb/src/kickstart_sdfat.a65:289
 9983  AD 89 D6  LDA   $D689          | /home/lgb/prog_here/mega65-core-lgb/src/kickstart_sdfat.a65:290
 9986  C9 02     CMP   #$02         | /home/lgb/prog_here/mega65-core-lgb/src/kickstart_sdfat.a65:292
 9988  D0 B3     BNE   $003D          | /home/lgb/prog_here/mega65-core-lgb/src/kickstart_sdfat.a65:293
 998A  38        SEC                  | /home/lgb/prog_here/mega65-core-lgb/src/kickstart_sdfat.a65:295
 998B  60        RTS                  | /home/lgb/prog_here/mega65-core-lgb/src/kickstart_sdfat.a65:296
 998C  20 4F A6  JSR   $A64F          | /home/lgb/prog_here/mega65-core-lgb/src/kickstart_sdfat.a65:304
 998F  00 45 52 52 4F 52 20 72 65 72 65 61 64 73 65 63  |.ERROR rereadsec|
 999F  74 6F 72 3A 00                                   |tor:.           |
 99A4  20 99 98  JSR   $9899          | /home/lgb/prog_here/mega65-core-lgb/src/kickstart_sdfat.a65:307
 99A7  4C 67 99  JMP   $9967          | /home/lgb/prog_here/mega65-core-lgb/src/kickstart_sdfat.a65:308
 99AA  A9 07     LDA   #$07         | /home/lgb/prog_here/mega65-core-lgb/src/kickstart_sdfat.a65:312
 99AC  8D F6 BC  STA   $BCF6          | /home/lgb/prog_here/mega65-core-lgb/src/kickstart_sdfat.a65:313
 99AF  20 4F A6  JSR   $A64F          | /home/lgb/prog_here/mega65-core-lgb/src/kickstart_sdfat.a65:314
 99B2  00 45 52 52 4F 52 20 72 73 62 75 73 79 66 61 69  |.ERROR rsbusyfai|
 99C2  6C 3A 00                                         |l:.             |
 99C5  18        CLC                  | /home/lgb/prog_here/mega65-core-lgb/src/kickstart_sdfat.a65:317
 99C6  60        RTS                  | /home/lgb/prog_here/mega65-core-lgb/src/kickstart_sdfat.a65:318
 99C7  AD 80 D6  LDA   $D680          | /home/lgb/prog_here/mega65-core-lgb/src/kickstart_sdfat.a65:330
 99CA  29 10     AND   #$10         | /home/lgb/prog_here/mega65-core-lgb/src/kickstart_sdfat.a65:331
 99CC  D0 1A     BNE   $00E8          | /home/lgb/prog_here/mega65-core-lgb/src/kickstart_sdfat.a65:332
 99CE  AD 82 D6  LDA   $D682          | /home/lgb/prog_here/mega65-core-lgb/src/kickstart_sdfat.a65:336
 99D1  18        CLC                  | /home/lgb/prog_here/mega65-core-lgb/src/kickstart_sdfat.a65:337
 99D2  69 02     ADC   #$02         | /home/lgb/prog_here/mega65-core-lgb/src/kickstart_sdfat.a65:338
 99D4  8D 82 D6  STA   $D682          | /home/lgb/prog_here/mega65-core-lgb/src/kickstart_sdfat.a65:339
 99D7  AD 83 D6  LDA   $D683          | /home/lgb/prog_here/mega65-core-lgb/src/kickstart_sdfat.a65:341
 99DA  69 00     ADC   #$00         | /home/lgb/prog_here/mega65-core-lgb/src/kickstart_sdfat.a65:342
 99DC  8D 83 D6  STA   $D683          | /home/lgb/prog_here/mega65-core-lgb/src/kickstart_sdfat.a65:343
 99DF  AD 84 D6  LDA   $D684          | /home/lgb/prog_here/mega65-core-lgb/src/kickstart_sdfat.a65:345
 99E2  69 00     ADC   #$00         | /home/lgb/prog_here/mega65-core-lgb/src/kickstart_sdfat.a65:346
 99E4  8D 84 D6  STA   $D684          | /home/lgb/prog_here/mega65-core-lgb/src/kickstart_sdfat.a65:347
 99E7  60        RTS                  | /home/lgb/prog_here/mega65-core-lgb/src/kickstart_sdfat.a65:348
 99E8  20 4F A6  JSR   $A64F          | /home/lgb/prog_here/mega65-core-lgb/src/kickstart_sdfat.a65:355
 99EB  00 45 52 52 4F 52 3A 20 73 64 68 63 31 3A 00     |.ERROR: sdhc1:. |
 99FA  EE 81 D6  INC   $D681          | /home/lgb/prog_here/mega65-core-lgb/src/kickstart_sdfat.a65:358
 99FD  90 0D     BCC   $000C          | /home/lgb/prog_here/mega65-core-lgb/src/kickstart_sdfat.a65:359
 99FF  EE 82 D6  INC   $D682          | /home/lgb/prog_here/mega65-core-lgb/src/kickstart_sdfat.a65:360
 9A02  90 08     BCC   $000C          | /home/lgb/prog_here/mega65-core-lgb/src/kickstart_sdfat.a65:361
 9A04  EE 83 D6  INC   $D683          | /home/lgb/prog_here/mega65-core-lgb/src/kickstart_sdfat.a65:362
 9A07  90 03     BCC   $000C          | /home/lgb/prog_here/mega65-core-lgb/src/kickstart_sdfat.a65:363
 9A09  EE 84 D6  INC   $D684          | /home/lgb/prog_here/mega65-core-lgb/src/kickstart_sdfat.a65:364
 9A0C  60        RTS                  | /home/lgb/prog_here/mega65-core-lgb/src/kickstart_sdfat.a65:366
 9A0D  AD 80 D6  LDA   $D680          | /home/lgb/prog_here/mega65-core-lgb/src/kickstart_sdfat.a65:382
 9A10  29 10     AND   #$10         | /home/lgb/prog_here/mega65-core-lgb/src/kickstart_sdfat.a65:383
 9A12  F0 21     BEQ   $0035          | /home/lgb/prog_here/mega65-core-lgb/src/kickstart_sdfat.a65:384
 9A14  20 4F A6  JSR   $A64F          | /home/lgb/prog_here/mega65-core-lgb/src/kickstart_sdfat.a65:389
 9A17  00 45 52 52 4F 52 3A 20 73 64 5F 66 69 78 5F 73  |.ERROR: sd_fix_s|
 9A27  65 63 74 6F 72 6E 75 6D 62 65 72 3A 00           |ectornumber:.   |
 9A34  60        RTS                  | /home/lgb/prog_here/mega65-core-lgb/src/kickstart_sdfat.a65:392
 9A35  AD 83 D6  LDA   $D683          | /home/lgb/prog_here/mega65-core-lgb/src/kickstart_sdfat.a65:404
 9A38  8D 84 D6  STA   $D684          | /home/lgb/prog_here/mega65-core-lgb/src/kickstart_sdfat.a65:405
 9A3B  AD 82 D6  LDA   $D682          | /home/lgb/prog_here/mega65-core-lgb/src/kickstart_sdfat.a65:406
 9A3E  8D 83 D6  STA   $D683          | /home/lgb/prog_here/mega65-core-lgb/src/kickstart_sdfat.a65:407
 9A41  AD 81 D6  LDA   $D681          | /home/lgb/prog_here/mega65-core-lgb/src/kickstart_sdfat.a65:408
 9A44  8D 82 D6  STA   $D682          | /home/lgb/prog_here/mega65-core-lgb/src/kickstart_sdfat.a65:409
 9A47  A9 00     LDA   #$00         | /home/lgb/prog_here/mega65-core-lgb/src/kickstart_sdfat.a65:410
 9A49  8D 81 D6  STA   $D681          | /home/lgb/prog_here/mega65-core-lgb/src/kickstart_sdfat.a65:411
 9A4C  AD 82 D6  LDA   $D682          | /home/lgb/prog_here/mega65-core-lgb/src/kickstart_sdfat.a65:415
 9A4F  0A        ASL                  | /home/lgb/prog_here/mega65-core-lgb/src/kickstart_sdfat.a65:416
 9A50  8D 82 D6  STA   $D682          | /home/lgb/prog_here/mega65-core-lgb/src/kickstart_sdfat.a65:417
 9A53  AD 83 D6  LDA   $D683          | /home/lgb/prog_here/mega65-core-lgb/src/kickstart_sdfat.a65:418
 9A56  2A        ROL                  | /home/lgb/prog_here/mega65-core-lgb/src/kickstart_sdfat.a65:419
 9A57  8D 83 D6  STA   $D683          | /home/lgb/prog_here/mega65-core-lgb/src/kickstart_sdfat.a65:420
 9A5A  AD 84 D6  LDA   $D684          | /home/lgb/prog_here/mega65-core-lgb/src/kickstart_sdfat.a65:421
 9A5D  2A        ROL                  | /home/lgb/prog_here/mega65-core-lgb/src/kickstart_sdfat.a65:422
 9A5E  8D 84 D6  STA   $D684          | /home/lgb/prog_here/mega65-core-lgb/src/kickstart_sdfat.a65:423
 9A61  60        RTS                  | /home/lgb/prog_here/mega65-core-lgb/src/kickstart_sdfat.a65:424
 9A62  EE 20 D0  INC   $D020          | /home/lgb/prog_here/mega65-core-lgb/src/kickstart_virtual_f011.a65:10
 9A65  A2 00     LDX   #$00         | /home/lgb/prog_here/mega65-core-lgb/src/kickstart_virtual_f011.a65:12
 9A67  AD 7C D6  LDA   $D67C          | /home/lgb/prog_here/mega65-core-lgb/src/kickstart_virtual_f011.a65:14
 9A6A  29 C0     AND   #$C0         | /home/lgb/prog_here/mega65-core-lgb/src/kickstart_virtual_f011.a65:15
 9A6C  D0 F9     BNE   $0067          | /home/lgb/prog_here/mega65-core-lgb/src/kickstart_virtual_f011.a65:16
 9A6E  BD 7C 9A  LDA   $9A7C, X       | /home/lgb/prog_here/mega65-core-lgb/src/kickstart_virtual_f011.a65:17
 9A71  8D 7C D6  STA   $D67C          | /home/lgb/prog_here/mega65-core-lgb/src/kickstart_virtual_f011.a65:18
 9A74  E8        INX                  | /home/lgb/prog_here/mega65-core-lgb/src/kickstart_virtual_f011.a65:19
 9A75  E0 09     CPX   #$09         | /home/lgb/prog_here/mega65-core-lgb/src/kickstart_virtual_f011.a65:20
 9A77  D0 EE     BNE   $0067          | /home/lgb/prog_here/mega65-core-lgb/src/kickstart_virtual_f011.a65:21
 9A79  4C 62 9A  JMP   $9A62          | /home/lgb/prog_here/mega65-core-lgb/src/kickstart_virtual_f011.a65:23
 9A7C  46 30 31 31 52 45 41 44 0D                       |F011READ.       |
 9A85  8D 7F D6  STA   $D67F          | /home/lgb/prog_here/mega65-core-lgb/src/kickstart_virtual_f011.a65:34
 9A88  78        SEI                  | kickstart.a65:401
 9A89  D8        CLD                  | kickstart.a65:402
 9A8A  03        SEE                  | kickstart.a65:403
 9A8B  A9 7F     LDA   #$7F         | kickstart.a65:406
 9A8D  8D 0D DC  STA   $DC0D          | kickstart.a65:407
 9A90  8D 0D DD  STA   $DD0D          | kickstart.a65:408
 9A93  A9 00     LDA   #$00         | kickstart.a65:409
 9A95  8D 19 D0  STA   $D019          | kickstart.a65:410
 9A98  38        SEC                  | kickstart.a65:412
 9A99  20 8B A4  JSR   $A48B          | kickstart.a65:414
 9A9C  AD 0D D6  LDA   $D60D          | kickstart.a65:416
 9A9F  AD 31 D0  LDA   $D031          | kickstart.a65:420
 9AA2  09 40     ORA   #$40         | kickstart.a65:421
 9AA4  8D 31 D0  STA   $D031          | kickstart.a65:422
 9AA7  A9 40     LDA   #$40         | kickstart.a65:424
 9AA9  0C 54 D0  TSB   $D054          | kickstart.a65:425
 9AAC  A9 00     LDA   #$00         | kickstart.a65:428
 9AAE  8D 17 D0  STA   $D017          | kickstart.a65:429
 9AB1  A9 7F     LDA   #$7F         | kickstart.a65:431
 9AB3  8D 0D DC  STA   $DC0D          | kickstart.a65:432
 9AB6  8D 0D DD  STA   $DD0D          | kickstart.a65:433
 9AB9  A9 00     LDA   #$00         | kickstart.a65:434
 9ABB  8D 1A D0  STA   $D01A          | kickstart.a65:435
 9ABE  A9 6A     LDA   #$6A         | kickstart.a65:458
 9AC0  8D 7D D6  STA   $D67D          | kickstart.a65:459
 9AC3  20 41 A1  JSR   $A141          | kickstart.a65:461
 9AC6  20 69 A2  JSR   $A269          | kickstart.a65:462
 9AC9  20 82 A1  JSR   $A182          | kickstart.a65:463
 9ACC  20 4F A6  JSR   $A64F          | kickstart.a65:466
 9ACF  00 72 65 73 65 74 5F 6D 61 63 68 69 6E 65 5F 73  |.reset_machine_s|
 9ADF  74 61 74 65 00                                   |tate.           |
 9AE4  20 4F A6  JSR   $A64F          | kickstart.a65:469
 9AE7  00 72 65 73 65 74 5F 6D 61 63 68 69 6E 65 5F 73  |.reset_machine_s|
 9AF7  74 61 74 65 00                                   |tate.           |
 9AFC  60        RTS                  | kickstart.a65:472
 9AFD  78        SEI                  | kickstart.a65:479
 9AFE  A9 00     LDA   #$00         | kickstart.a65:480
 9B00  8D 00 BF  STA   $BF00          | kickstart.a65:481
 9B03  4C 0F 9B  JMP   $9B0F          | kickstart.a65:482
 9B06  78        SEI                  | kickstart.a65:485
 9B07  A9 80     LDA   #$80         | kickstart.a65:486
 9B09  8D 00 BF  STA   $BF00          | kickstart.a65:487
 9B0C  4C 0F 9B  JMP   $9B0F          | kickstart.a65:488
 9B0F  20 88 9A  JSR   $9A88          | kickstart.a65:492
 9B12  A2 67     LDX   #$67         | kickstart.a65:496
 9B14  A0 A9     LDY   #$A9         | kickstart.a65:497
 9B16  20 1A A3  JSR   $A31A          | kickstart.a65:498
 9B19  A2 CB     LDX   #$CB         | kickstart.a65:502
 9B1B  A0 AD     LDY   #$AD         | kickstart.a65:503
 9B1D  20 1A A3  JSR   $A31A          | kickstart.a65:504
 9B20  A2 AD     LDX   #$AD         | kickstart.a65:508
 9B22  A0 AD     LDY   #$AD         | kickstart.a65:509
 9B24  20 1A A3  JSR   $A31A          | kickstart.a65:510
 9B27  A2 87     LDX   #$87         | kickstart.a65:514
 9B29  A0 A9     LDY   #$A9         | kickstart.a65:515
 9B2B  20 1A A3  JSR   $A31A          | kickstart.a65:516
 9B2E  20 B2 A4  JSR   $A4B2          | kickstart.a65:520
 9B31  2C D6 A3  BIT   $A3D6          | kickstart.a65:525
 9B34  2C 34 12  BIT   $1234          | kickstart.a65:526
 9B37  AD 00 BF  LDA   $BF00          | kickstart.a65:531
 9B3A  33 23 00  BMI   $9B5F          | kickstart.a65:532
 9B3D  AD F1 D6  LDA   $D6F1          | kickstart.a65:533
 9B40  29 02     AND   #$02         | kickstart.a65:534
 9B42  F0 1B     BEQ   $005F          | kickstart.a65:535
 9B44  A2 23     LDX   #$23         | kickstart.a65:537
 9B46  A0 AD     LDY   #$AD         | kickstart.a65:538
 9B48  20 1A A3  JSR   $A31A          | kickstart.a65:539
 9B4B  20 E8 A4  JSR   $A4E8          | kickstart.a65:540
 9B4E  20 1B A5  JSR   $A51B          | kickstart.a65:542
 9B51  00 65 74 68 65 72 6C 6F 6F 70 00                 |.etherloop.     |
 9B5C  4C 4E 9B  JMP   $9B4E          | kickstart.a65:544
 9B5F  20 AB A4  JSR   $A4AB          | kickstart.a65:551
 9B62  B0 05     BCS   $0069          | kickstart.a65:552
 9B64  C9 20     CMP   #$20         | kickstart.a65:553
 9B66  F3 F2 0B  BEQ   $A75A          | kickstart.a65:554
 9B69  20 D3 B2  JSR   $B2D3          | kickstart.a65:558
 9B6C  20 12 AE  JSR   $AE12          | kickstart.a65:559
 9B6F  A2 40     LDX   #$40         | kickstart.a65:563
 9B71  A0 AA     LDY   #$AA         | kickstart.a65:564
 9B73  20 1A A3  JSR   $A31A          | kickstart.a65:565
 9B76  20 4A 98  JSR   $984A          | kickstart.a65:568
 9B79  B3 3B 00  BCS   $9BB6          | kickstart.a65:569
 9B7C  20 AB A4  JSR   $A4AB          | kickstart.a65:572
 9B7F  B0 05     BCS   $0086          | kickstart.a65:573
 9B81  C9 20     CMP   #$20         | kickstart.a65:574
 9B83  F3 D5 0B  BEQ   $A75A          | kickstart.a65:575
 9B86  A2 51     LDX   #$51         | kickstart.a65:581
 9B88  A0 A9     LDY   #$A9         | kickstart.a65:582
 9B8A  20 1A A3  JSR   $A31A          | kickstart.a65:583
 9B8D  A9 81     LDA   #$81         | kickstart.a65:587
 9B8F  0C 80 D6  TSB   $D680          | kickstart.a65:588
 9B92  20 4F A6  JSR   $A64F          | kickstart.a65:592
 9B95  00 72 65 2D 74 72 79 20 72 65 61 64 69 6E 67 20  |.re-try reading |
 9BA5  4D 42 52 20 6F 66 20 73 64 63 61 72 64 00        |MBR of sdcard.  |
 9BB3  4C 76 9B  JMP   $9B76          | kickstart.a65:595
 9BB6  20 8B 8B  JSR   $8B8B          | kickstart.a65:604
 9BB9  20 F4 85  JSR   $85F4          | kickstart.a65:605
 9BBC  A2 00     LDX   #$00         | kickstart.a65:609
 9BBE  A0 AB     LDY   #$AB         | kickstart.a65:610
 9BC0  20 1A A3  JSR   $A31A          | kickstart.a65:611
 9BC3  A0 00     LDY   #$00         | kickstart.a65:613
 9BC5  AB 01 BC  LDZ   $BC01          | kickstart.a65:614
 9BC8  20 AC A3  JSR   $A3AC          | kickstart.a65:615
 9BCB  A0 00     LDY   #$00         | kickstart.a65:617
 9BCD  AB 02 BC  LDZ   $BC02          | kickstart.a65:618
 9BD0  20 AC A3  JSR   $A3AC          | kickstart.a65:619
 9BD3  20 D3 B2  JSR   $B2D3          | kickstart.a65:621
 9BD6  20 12 AE  JSR   $AE12          | kickstart.a65:622
 9BD9  AD 01 BC  LDA   $BC01          | kickstart.a65:628
 9BDC  F3 7C 0B  BEQ   $A75A          | kickstart.a65:629
 9BDF  AE 02 BC  LDX   $BC02          | kickstart.a65:634
 9BE2  20 DF 8A  JSR   $8ADF          | kickstart.a65:635
 9BE5  B3 22 00  BCS   $9C09          | kickstart.a65:636
 9BE8  A2 8D     LDX   #$8D         | kickstart.a65:640
 9BEA  A0 AD     LDY   #$AD         | kickstart.a65:641
 9BEC  20 1A A3  JSR   $A31A          | kickstart.a65:642
 9BEF  A0 00     LDY   #$00         | kickstart.a65:643
 9BF1  AB F6 BC  LDZ   $BCF6          | kickstart.a65:644
 9BF4  20 AC A3  JSR   $A3AC          | kickstart.a65:645
 9BF7  20 4F A6  JSR   $A64F          | kickstart.a65:647
 9BFA  00 46 41 49 4C 45 44 20 43 44 52 4F 4F 54 00     |.FAILED CDROOT. |
 9C09  A9 3D     LDA   #$3D         | kickstart.a65:658
 9C0B  85 1A     STA   $1A          | kickstart.a65:659
 9C0D  A9 00     LDA   #$00         | kickstart.a65:660
 9C0F  85 19     STA   $19          | kickstart.a65:661
 9C11  85 1B     STA   $1B          | kickstart.a65:663
 9C13  85 1C     STA   $1C          | kickstart.a65:665
 9C15  A2 07     LDX   #$07         | kickstart.a65:667
 9C17  A0 AE     LDY   #$AE         | kickstart.a65:668
 9C19  20 33 94  JSR   $9433          | kickstart.a65:669
 9C1C  20 4F A6  JSR   $A64F          | kickstart.a65:673
 9C1F  00 20 20 74 72 79 2D 6C 6F 61 64 69 6E 67 20 42  |.  try-loading B|
 9C2F  4F 4F 54 4C 4F 47 4F 00                          |OOTLOGO.        |
 9C37  20 D8 93  JSR   $93D8          | kickstart.a65:676
 9C3A  B3 4A 00  BCS   $9C86          | kickstart.a65:677
 9C3D  20 4F A6  JSR   $A64F          | kickstart.a65:683
 9C40  00 20 20 46 41 49 4C 45 44 2D 6C 6F 61 64 69 6E  |.  FAILED-loadin|
 9C50  67 20 42 4F 4F 54 4C 4F 47 4F 00                 |g BOOTLOGO.     |
 9C5B  A2 68     LDX   #$68         | kickstart.a65:688
 9C5D  A0 AD     LDY   #$AD         | kickstart.a65:689
 9C5F  20 1A A3  JSR   $A31A          | kickstart.a65:690
 9C62  A0 00     LDY   #$00         | kickstart.a65:691
 9C64  AB F6 BC  LDZ   $BCF6          | kickstart.a65:692
 9C67  20 AC A3  JSR   $A3AC          | kickstart.a65:693
 9C6A  20 4F A6  JSR   $A64F          | kickstart.a65:695
 9C6D  00 46 41 49 4C 45 44 20 6C 6F 61 64 69 6E 67 20  |.FAILED loading |
 9C7D  42 4F 4F 54 4C 4F 47 4F 00                       |BOOTLOGO.       |
 9C86  20 E0 A2  JSR   $A2E0          | kickstart.a65:702
 9C89  AD 7E D6  LDA   $D67E          | kickstart.a65:708
 9C8C  F0 0A     BEQ   $0098          | kickstart.a65:709
 9C8E  A2 09     LDX   #$09         | kickstart.a65:713
 9C90  A0 AD     LDY   #$AD         | kickstart.a65:714
 9C92  20 1A A3  JSR   $A31A          | kickstart.a65:715
 9C95  4C 4D 9D  JMP   $9D4D          | kickstart.a65:717
 9C98  A9 00     LDA   #$00         | kickstart.a65:727
 9C9A  85 19     STA   $19          | kickstart.a65:728
 9C9C  A9 40     LDA   #$40         | kickstart.a65:729
 9C9E  85 1A     STA   $1A          | kickstart.a65:730
 9CA0  A9 00     LDA   #$00         | kickstart.a65:731
 9CA2  85 1B     STA   $1B          | kickstart.a65:732
 9CA4  A9 00     LDA   #$00         | kickstart.a65:733
 9CA6  85 1C     STA   $1C          | kickstart.a65:734
 9CA8  A2 FC     LDX   #$FC         | kickstart.a65:736
 9CAA  A0 AD     LDY   #$AD         | kickstart.a65:737
 9CAC  20 33 94  JSR   $9433          | kickstart.a65:738
 9CAF  20 4F A6  JSR   $A64F          | kickstart.a65:742
 9CB2  00 20 20 74 72 79 2D 6C 6F 61 64 69 6E 67 20 4B  |.  try-loading K|
 9CC2  49 43 4B 55 50 00                                |ICKUP.          |
 9CC8  20 D8 93  JSR   $93D8          | kickstart.a65:745
 9CCB  93 79 00  BCC   $9D46          | kickstart.a65:746
 9CCE  20 4F A6  JSR   $A64F          | kickstart.a65:755
 9CD1  00 20 20 6C 6F 61 64 65 64 20 4F 4B 20 4B 49 43  |.  loaded OK KIC|
 9CE1  4B 55 50 00                                      |KUP.            |
 9CE5  A2 E4     LDX   #$E4         | kickstart.a65:759
 9CE7  A0 AC     LDY   #$AC         | kickstart.a65:760
 9CE9  20 1A A3  JSR   $A31A          | kickstart.a65:761
 9CEC  A0 00     LDY   #$00         | kickstart.a65:763
 9CEE  AB 14 00  LDZ   $0014          | kickstart.a65:764
 9CF1  20 AC A3  JSR   $A3AC          | kickstart.a65:765
 9CF4  AB 13 00  LDZ   $0013          | kickstart.a65:766
 9CF7  20 AC A3  JSR   $A3AC          | kickstart.a65:767
 9CFA  AB 12 00  LDZ   $0012          | kickstart.a65:768
 9CFD  20 AC A3  JSR   $A3AC          | kickstart.a65:769
 9D00  AB 11 00  LDZ   $0011          | kickstart.a65:770
 9D03  20 AC A3  JSR   $A3AC          | kickstart.a65:771
 9D06  A2 00     LDX   #$00         | kickstart.a65:777
 9D08  BD 14 9D  LDA   $9D14, X       | kickstart.a65:778
 9D0B  9D 00 30  STA   $3000, X       | kickstart.a65:779
 9D0E  E8        INX                  | kickstart.a65:780
 9D0F  D0 F7     BNE   $0008          | kickstart.a65:781
 9D11  4C 00 30  JMP   $3000          | kickstart.a65:782
 9D14  A9 FF     LDA   #$FF         | kickstart.a65:799
 9D16  8D 02 D7  STA   $D702          | kickstart.a65:800
 9D19  A9 FF     LDA   #$FF         | kickstart.a65:801
 9D1B  8D 04 D7  STA   $D704          | kickstart.a65:802
 9D1E  8D 06 D7  STA   $D706          | kickstart.a65:803
 9D21  A9 00     LDA   #$00         | kickstart.a65:804
 9D23  8D 05 D7  STA   $D705          | kickstart.a65:805
 9D26  A9 9D     LDA   #$9D         | kickstart.a65:806
 9D28  8D 01 D7  STA   $D701          | kickstart.a65:807
 9D2B  A9 3B     LDA   #$3B         | kickstart.a65:808
 9D2D  8D 00 D7  STA   $D700          | kickstart.a65:809
 9D30  A9 00     LDA   #$00         | kickstart.a65:811
 9D32  8D 06 D7  STA   $D706          | kickstart.a65:812
 9D35  8D 7E D6  STA   $D67E          | kickstart.a65:819
 9D38  4C 00 81  JMP   $8100          | kickstart.a65:820
 9D3B  00 00 40 00 40 00 00 80 0F 00 00                 |..@.@......     |
 9D46  A2 C2     LDX   #$C2         | kickstart.a65:840
 9D48  A0 AC     LDY   #$AC         | kickstart.a65:841
 9D4A  20 1A A3  JSR   $A31A          | kickstart.a65:842
 9D4D  20 4F A6  JSR   $A64F          | kickstart.a65:852
 9D50  00 20 20 48 65 72 65 20 77 65 20 61 72 65 20 50  |.  Here we are P|
 9D60  4F 53 54 2D 4B 49 43 4B 55 50 00                 |OST-KICKUP.     |
 9D6B  20 12 AE  JSR   $AE12          | kickstart.a65:855
 9D6E  A9 00     LDA   #$00         | kickstart.a65:859
 9D70  8D 8B D6  STA   $D68B          | kickstart.a65:860
 9D73  AE 02 BC  LDX   $BC02          | kickstart.a65:864
 9D76  20 DF 8A  JSR   $8ADF          | kickstart.a65:865
 9D79  93 E3 02  BCC   $A05E          | kickstart.a65:866
 9D7C  A2 F1     LDX   #$F1         | kickstart.a65:870
 9D7E  A0 AD     LDY   #$AD         | kickstart.a65:871
 9D80  20 33 94  JSR   $9433          | kickstart.a65:872
 9D83  20 4F A6  JSR   $A64F          | kickstart.a65:876
 9D86  00 20 20 74 72 79 2D 6D 6F 75 6E 74 69 6E 67 20  |.  try-mounting |
 9D96  4D 45 47 41 36 35 2E 44 38 31 00                 |MEGA65.D81.     |
 9DA1  20 E0 8B  JSR   $8BE0          | kickstart.a65:879
 9DA4  93 2D 00  BCC   $9DD3          | kickstart.a65:880
 9DA7  20 B7 8B  JSR   $8BB7          | kickstart.a65:881
 9DAA  20 55 94  JSR   $9455          | kickstart.a65:883
 9DAD  93 24 00  BCC   $9DD3          | kickstart.a65:884
 9DB0  A2 3E     LDX   #$3E         | kickstart.a65:886
 9DB2  A0 AC     LDY   #$AC         | kickstart.a65:887
 9DB4  20 1A A3  JSR   $A31A          | kickstart.a65:888
 9DB7  20 4F A6  JSR   $A64F          | kickstart.a65:892
 9DBA  00 20 20 6D 6F 75 6E 74 65 64 20 4D 45 47 41 36  |.  mounted MEGA6|
 9DCA  35 2E 44 38 31 00                                |5.D81.          |
 9DD0  4C 07 9E  JMP   $9E07          | kickstart.a65:898
 9DD3  A2 18     LDX   #$18         | kickstart.a65:905
 9DD5  A0 AC     LDY   #$AC         | kickstart.a65:906
 9DD7  20 1A A3  JSR   $A31A          | kickstart.a65:907
 9DDA  A0 00     LDY   #$00         | kickstart.a65:908
 9DDC  AB F6 BC  LDZ   $BCF6          | kickstart.a65:909
 9DDF  20 AC A3  JSR   $A3AC          | kickstart.a65:910
 9DE2  20 4F A6  JSR   $A64F          | kickstart.a65:913
 9DE5  00 20 63 6F 75 6C 64 6E 74 20 6D 6F 75 6E 74 2F  |. couldnt mount/|
 9DF5  61 74 74 61 63 68 20 4D 45 47 41 36 35 2E 44 38  |attach MEGA65.D8|
 9E05  31 00                                            |1.              |
 9E07  20 78 A0  JSR   $A078          | kickstart.a65:919
 9E0A  93 2F 00  BCC   $9E3B          | kickstart.a65:920
 9E0D  A2 A8     LDX   #$A8         | kickstart.a65:924
 9E0F  A0 A9     LDY   #$A9         | kickstart.a65:925
 9E11  20 1A A3  JSR   $A31A          | kickstart.a65:926
 9E14  20 4F A6  JSR   $A64F          | kickstart.a65:928
 9E17  00 4A 55 4D 50 69 6E 67 20 69 6E 74 6F 20 52 4F  |.JUMPing into RO|
 9E27  4D 2D 63 6F 64 65 00                             |M-code.         |
 9E2E  20 AB A4  JSR   $A4AB          | kickstart.a65:932
 9E31  B0 05     BCS   $0038          | kickstart.a65:933
 9E33  C9 20     CMP   #$20         | kickstart.a65:934
 9E35  F3 23 09  BEQ   $A75A          | kickstart.a65:935
 9E38  4C D6 A3  JMP   $A3D6          | kickstart.a65:939
 9E3B  20 12 AE  JSR   $AE12          | kickstart.a65:945
 9E3E  A2 C2     LDX   #$C2         | kickstart.a65:950
 9E40  A0 A9     LDY   #$A9         | kickstart.a65:951
 9E42  20 1A A3  JSR   $A31A          | kickstart.a65:952
 9E45  20 4F A6  JSR   $A64F          | kickstart.a65:956
 9E48  00 20 20 74 72 79 2D 6C 6F 61 64 69 6E 67 20 43  |.  try-loading C|
 9E58  48 41 52 2D 52 4F 4D 00                          |HAR-ROM.        |
 9E60  A2 D9     LDX   #$D9         | kickstart.a65:961
 9E62  A0 AD     LDY   #$AD         | kickstart.a65:962
 9E64  20 33 94  JSR   $9433          | kickstart.a65:963
 9E67  A9 00     LDA   #$00         | kickstart.a65:967
 9E69  85 19     STA   $19          | kickstart.a65:968
 9E6B  A9 E0     LDA   #$E0         | kickstart.a65:969
 9E6D  85 1A     STA   $1A          | kickstart.a65:970
 9E6F  A9 F7     LDA   #$F7         | kickstart.a65:971
 9E71  85 1B     STA   $1B          | kickstart.a65:972
 9E73  A9 0F     LDA   #$0F         | kickstart.a65:973
 9E75  85 1C     STA   $1C          | kickstart.a65:974
 9E77  20 D8 93  JSR   $93D8          | kickstart.a65:976
 9E7A  B3 29 00  BCS   $9EA5          | kickstart.a65:977
 9E7D  A2 E3     LDX   #$E3         | kickstart.a65:982
 9E7F  A0 A9     LDY   #$A9         | kickstart.a65:983
 9E81  20 1A A3  JSR   $A31A          | kickstart.a65:984
 9E84  20 4F A6  JSR   $A64F          | kickstart.a65:988
 9E87  00 20 63 6F 75 6C 64 6E 74 20 6C 6F 61 64 20 43  |. couldnt load C|
 9E97  48 41 52 52 4F 4D 2E 4D 36 35 00                 |HARROM.M65.     |
 9EA2  4C E2 9E  JMP   $9EE2          | kickstart.a65:991
 9EA5  20 4F A6  JSR   $A64F          | kickstart.a65:998
 9EA8  00 20 20 4F 4B 2D 6C 6F 61 64 69 6E 67 20 43 48  |.  OK-loading CH|
 9EB8  41 52 52 4F 4D 00                                |ARROM.          |
 9EBE  AE F5 BC  LDX   $BCF5          | kickstart.a65:1003
 9EC1  BD C1 BC  LDA   $BCC1, X       | kickstart.a65:1004
 9EC4  8D 06 CE  STA   $CE06          | kickstart.a65:1005
 9EC7  BD C2 BC  LDA   $BCC2, X       | kickstart.a65:1006
 9ECA  8D 07 CE  STA   $CE07          | kickstart.a65:1007
 9ECD  A2 FE     LDX   #$FE         | kickstart.a65:1009
 9ECF  A0 A9     LDY   #$A9         | kickstart.a65:1010
 9ED1  20 1A A3  JSR   $A31A          | kickstart.a65:1011
 9ED4  A0 00     LDY   #$00         | kickstart.a65:1012
 9ED6  AB 07 CE  LDZ   $CE07          | kickstart.a65:1013
 9ED9  20 AC A3  JSR   $A3AC          | kickstart.a65:1014
 9EDC  AB 06 CE  LDZ   $CE06          | kickstart.a65:1015
 9EDF  20 AC A3  JSR   $A3AC          | kickstart.a65:1016
 9EE2  20 12 AE  JSR   $AE12          | kickstart.a65:1020
 9EE5  20 4F A6  JSR   $A64F          | kickstart.a65:1024
 9EE8  00 20 20 74 72 79 2D 6C 6F 61 64 69 6E 67 20 4D  |.  try-loading M|
 9EF8  45 47 41 36 35 2D 52 4F 4D 00                    |EGA65-ROM.      |
 9F02  A2 E5     LDX   #$E5         | kickstart.a65:1027
 9F04  A0 AD     LDY   #$AD         | kickstart.a65:1028
 9F06  20 33 94  JSR   $9433          | kickstart.a65:1029
 9F09  A9 00     LDA   #$00         | kickstart.a65:1033
 9F0B  85 19     STA   $19          | kickstart.a65:1034
 9F0D  85 1A     STA   $1A          | kickstart.a65:1035
 9F0F  85 1C     STA   $1C          | kickstart.a65:1036
 9F11  A9 02     LDA   #$02         | kickstart.a65:1037
 9F13  85 1B     STA   $1B          | kickstart.a65:1038
 9F15  20 D8 93  JSR   $93D8          | kickstart.a65:1040
 9F18  B3 22 00  BCS   $9F3C          | kickstart.a65:1041
 9F1B  A2 0B     LDX   #$0B         | kickstart.a65:1047
 9F1D  BD E5 AD  LDA   $ADE5, X       | kickstart.a65:1048
 9F20  9D 93 AC  STA   $AC93, X       | kickstart.a65:1049
 9F23  CA        DEX                  | kickstart.a65:1050
 9F24  D0 F7     BNE   $001D          | kickstart.a65:1051
 9F26  A2 80     LDX   #$80         | kickstart.a65:1052
 9F28  A0 AC     LDY   #$AC         | kickstart.a65:1053
 9F2A  20 1A A3  JSR   $A31A          | kickstart.a65:1054
 9F2D  20 D9 98  JSR   $98D9          | kickstart.a65:1056
 9F30  20 D9 98  JSR   $98D9          | kickstart.a65:1057
 9F33  20 D9 98  JSR   $98D9          | kickstart.a65:1058
 9F36  20 D9 98  JSR   $98D9          | kickstart.a65:1059
 9F39  4C 5E A0  JMP   $A05E          | kickstart.a65:1061
 9F3C  AE F5 BC  LDX   $BCF5          | kickstart.a65:1067
 9F3F  BD C1 BC  LDA   $BCC1, X       | kickstart.a65:1068
 9F42  8D 06 CE  STA   $CE06          | kickstart.a65:1069
 9F45  BD C2 BC  LDA   $BCC2, X       | kickstart.a65:1070
 9F48  8D 07 CE  STA   $CE07          | kickstart.a65:1071
 9F4B  AD 06 CE  LDA   $CE06          | kickstart.a65:1076
 9F4E  D3 EE 00  BNE   $A03E          | kickstart.a65:1077
 9F51  AD 07 CE  LDA   $CE07          | kickstart.a65:1078
 9F54  C9 00     CMP   #$00         | kickstart.a65:1079
 9F56  F3 E6 00  BEQ   $A03E          | kickstart.a65:1080
 9F59  C9 02     CMP   #$02         | kickstart.a65:1081
 9F5B  D3 C8 00  BNE   $A025          | kickstart.a65:1082
 9F5E  20 B0 A0  JSR   $A0B0          | kickstart.a65:1087
 9F61  20 4F A6  JSR   $A64F          | kickstart.a65:1092
 9F64  00 20 20 4F 4B 2D 6C 6F 61 64 69 6E 67 20 43 48  |.  OK-loading CH|
 9F74  41 52 52 4F 4D 00                                |ARROM.          |
 9F7A  AE F5 BC  LDX   $BCF5          | kickstart.a65:1097
 9F7D  BD C1 BC  LDA   $BCC1, X       | kickstart.a65:1098
 9F80  8D 06 CE  STA   $CE06          | kickstart.a65:1099
 9F83  BD C2 BC  LDA   $BCC2, X       | kickstart.a65:1100
 9F86  8D 07 CE  STA   $CE07          | kickstart.a65:1101
 9F89  A2 1E     LDX   #$1E         | kickstart.a65:1103
 9F8B  A0 AA     LDY   #$AA         | kickstart.a65:1104
 9F8D  20 1A A3  JSR   $A31A          | kickstart.a65:1105
 9F90  A0 00     LDY   #$00         | kickstart.a65:1106
 9F92  AB 07 CE  LDZ   $CE07          | kickstart.a65:1107
 9F95  20 AC A3  JSR   $A3AC          | kickstart.a65:1108
 9F98  AB 06 CE  LDZ   $CE06          | kickstart.a65:1109
 9F9B  20 AC A3  JSR   $A3AC          | kickstart.a65:1110
 9F9E  A2 A8     LDX   #$A8         | kickstart.a65:1114
 9FA0  A0 A9     LDY   #$A9         | kickstart.a65:1115
 9FA2  20 1A A3  JSR   $A31A          | kickstart.a65:1116
 9FA5  20 4F A6  JSR   $A64F          | kickstart.a65:1120
 9FA8  00 20 20 4F 4B 2D 6C 6F 61 64 69 6E 67 20 4D 45  |.  OK-loading ME|
 9FB8  47 41 36 35 2D 52 4F 4D 00                       |GA65-ROM.       |
 9FC1  20 4F A6  JSR   $A64F          | kickstart.a65:1125
 9FC4  00 4A 55 4D 50 69 6E 67 20 69 6E 74 6F 20 52 4F  |.JUMPing into RO|
 9FD4  4D 2D 63 6F 64 65 00                             |M-code.         |
 9FDB  20 12 AE  JSR   $AE12          | kickstart.a65:1128
 9FDE  20 4F A6  JSR   $A64F          | kickstart.a65:1134
 9FE1  00 20 20 74 72 79 2D 6C 6F 61 64 69 6E 67 20 24  |.  try-loading $|
 9FF1  43 30 30 30 20 55 74 69 6C 69 74 79 00           |C000 Utility.   |
 9FFE  A2 CC     LDX   #$CC         | kickstart.a65:1137
 A000  A0 AD     LDY   #$AD         | kickstart.a65:1138
 A002  20 33 94  JSR   $9433          | kickstart.a65:1139
 A005  A9 00     LDA   #$00         | kickstart.a65:1143
 A007  85 19     STA   $19          | kickstart.a65:1144
 A009  85 1B     STA   $1B          | kickstart.a65:1145
 A00B  85 1C     STA   $1C          | kickstart.a65:1146
 A00D  A9 C0     LDA   #$C0         | kickstart.a65:1147
 A00F  85 1A     STA   $1A          | kickstart.a65:1148
 A011  20 D8 93  JSR   $93D8          | kickstart.a65:1150
 A014  20 12 AE  JSR   $AE12          | kickstart.a65:1153
 A017  20 AB A4  JSR   $A4AB          | kickstart.a65:1156
 A01A  B3 06 00  BCS   $A022          | kickstart.a65:1157
 A01D  C9 20     CMP   #$20         | kickstart.a65:1158
 A01F  F3 39 07  BEQ   $A75A          | kickstart.a65:1159
 A022  4C D6 A3  JMP   $A3D6          | kickstart.a65:1162
 A025  A2 A5     LDX   #$A5         | kickstart.a65:1167
 A027  A0 AB     LDY   #$AB         | kickstart.a65:1168
 A029  20 1A A3  JSR   $A31A          | kickstart.a65:1169
 A02C  AB 07 CE  LDZ   $CE07          | kickstart.a65:1170
 A02F  20 AC A3  JSR   $A3AC          | kickstart.a65:1171
 A032  AB 06 CE  LDZ   $CE06          | kickstart.a65:1172
 A035  20 AC A3  JSR   $A3AC          | kickstart.a65:1173
 A038  20 D9 98  JSR   $98D9          | kickstart.a65:1174
 A03B  4C FD 9A  JMP   $9AFD          | kickstart.a65:1175
 A03E  A2 C5     LDX   #$C5         | kickstart.a65:1178
 A040  A0 AB     LDY   #$AB         | kickstart.a65:1179
 A042  20 1A A3  JSR   $A31A          | kickstart.a65:1180
 A045  AB 07 CE  LDZ   $CE07          | kickstart.a65:1181
 A048  20 AC A3  JSR   $A3AC          | kickstart.a65:1182
 A04B  AB 06 CE  LDZ   $CE06          | kickstart.a65:1183
 A04E  20 AC A3  JSR   $A3AC          | kickstart.a65:1184
 A051  20 D9 98  JSR   $98D9          | kickstart.a65:1185
 A054  4C FD 9A  JMP   $9AFD          | kickstart.a65:1186
 A057  A2 6D     LDX   #$6D         | kickstart.a65:1191
 A059  A0 AB     LDY   #$AB         | kickstart.a65:1192
 A05B  20 1A A3  JSR   $A31A          | kickstart.a65:1193
 A05E  A2 6D     LDX   #$6D         | kickstart.a65:1195
 A060  A0 AA     LDY   #$AA         | kickstart.a65:1196
 A062  20 1A A3  JSR   $A31A          | kickstart.a65:1197
 A065  20 D9 98  JSR   $98D9          | kickstart.a65:1199
 A068  4C FD 9A  JMP   $9AFD          | kickstart.a65:1200
 A06B  A2 9A     LDX   #$9A         | kickstart.a65:1204
 A06D  A0 AA     LDY   #$AA         | kickstart.a65:1205
 A06F  20 1A A3  JSR   $A31A          | kickstart.a65:1206
 A072  20 D9 98  JSR   $98D9          | kickstart.a65:1208
 A075  4C FD 9A  JMP   $9AFD          | kickstart.a65:1209
 A078  AD F1 D6  LDA   $D6F1          | kickstart.a65:1218
 A07B  29 20     AND   #$20         | kickstart.a65:1219
 A07D  D3 2F 00  BNE   $A0AE          | kickstart.a65:1220
 A080  AD EB AD  LDA   $ADEB          | kickstart.a65:1225
 A083  C9 2E     CMP   #$2E         | kickstart.a65:1226
 A085  D3 27 00  BNE   $A0AE          | kickstart.a65:1227
 A088  20 DA A0  JSR   $A0DA          | kickstart.a65:1231
 A08B  20 C6 A0  JSR   $A0C6          | kickstart.a65:1236
 A08E  AD 00 40  LDA   $4000          | kickstart.a65:1238
 A091  CD 02 CE  CMP   $CE02          | kickstart.a65:1239
 A094  D3 18 00  BNE   $A0AE          | kickstart.a65:1240
 A097  AD 01 40  LDA   $4001          | kickstart.a65:1241
 A09A  CD 03 CE  CMP   $CE03          | kickstart.a65:1242
 A09D  D3 0F 00  BNE   $A0AE          | kickstart.a65:1243
 A0A0  AD 02 40  LDA   $4002          | kickstart.a65:1244
 A0A3  CD 04 CE  CMP   $CE04          | kickstart.a65:1245
 A0A6  D3 06 00  BNE   $A0AE          | kickstart.a65:1246
 A0A9  20 7A A4  JSR   $A47A          | kickstart.a65:1248
 A0AC  38        SEC                  | kickstart.a65:1250
 A0AD  60        RTS                  | kickstart.a65:1251
 A0AE  18        CLC                  | kickstart.a65:1256
 A0AF  60        RTS                  | kickstart.a65:1257
 A0B0  20 C6 A0  JSR   $A0C6          | kickstart.a65:1262
 A0B3  AD 02 CE  LDA   $CE02          | kickstart.a65:1264
 A0B6  8D 00 40  STA   $4000          | kickstart.a65:1265
 A0B9  AD 03 CE  LDA   $CE03          | kickstart.a65:1266
 A0BC  8D 01 40  STA   $4001          | kickstart.a65:1267
 A0BF  AD 04 CE  LDA   $CE04          | kickstart.a65:1268
 A0C2  8D 02 40  STA   $4002          | kickstart.a65:1269
 A0C5  60        RTS                  | kickstart.a65:1270
 A0C6  A9 80     LDA   #$80         | kickstart.a65:1287
 A0C8  A2 0F     LDX   #$0F         | kickstart.a65:1288
 A0CA  A0 00     LDY   #$00         | kickstart.a65:1289
 A0CC  A3 3F     LDZ   #$3F         | kickstart.a65:1290
 A0CE  5C        MAP                  | kickstart.a65:1292
 A0CF  A9 C0     LDA   #$C0         | kickstart.a65:1296
 A0D1  A2 CF     LDX   #$CF         | kickstart.a65:1297
 A0D3  A0 00     LDY   #$00         | kickstart.a65:1298
 A0D5  A3 3F     LDZ   #$3F         | kickstart.a65:1299
 A0D7  5C        MAP                  | kickstart.a65:1300
 A0D8  EA        EOM                  | kickstart.a65:1301
 A0D9  60        RTS                  | kickstart.a65:1303
 A0DA  A9 03     LDA   #$03         | kickstart.a65:1338
 A0DC  8D 02 CE  STA   $CE02          | kickstart.a65:1339
 A0DF  8D 03 CE  STA   $CE03          | kickstart.a65:1340
 A0E2  8D 04 CE  STA   $CE04          | kickstart.a65:1341
 A0E5  8D 05 CE  STA   $CE05          | kickstart.a65:1342
 A0E8  A9 08     LDA   #$08         | kickstart.a65:1348
 A0EA  8D 00 CE  STA   $CE00          | kickstart.a65:1349
 A0ED  AD 00 CE  LDA   $CE00          | kickstart.a65:1364
 A0F0  38        SEC                  | kickstart.a65:1365
 A0F1  E9 01     SBC   #$01         | kickstart.a65:1366
 A0F3  4A        LSR                  | kickstart.a65:1367
 A0F4  4A        LSR                  | kickstart.a65:1368
 A0F5  09 C0     ORA   #$C0         | kickstart.a65:1369
 A0F7  AA        TAX                  | kickstart.a65:1370
 A0F8  AD 00 CE  LDA   $CE00          | kickstart.a65:1371
 A0FB  38        SEC                  | kickstart.a65:1372
 A0FC  E9 01     SBC   #$01         | kickstart.a65:1373
 A0FE  0A        ASL                  | kickstart.a65:1374
 A0FF  0A        ASL                  | kickstart.a65:1375
 A100  0A        ASL                  | kickstart.a65:1376
 A101  0A        ASL                  | kickstart.a65:1377
 A102  0A        ASL                  | kickstart.a65:1378
 A103  0A        ASL                  | kickstart.a65:1379
 A104  A0 00     LDY   #$00         | kickstart.a65:1380
 A106  A3 3F     LDZ   #$3F         | kickstart.a65:1381
 A108  5C        MAP                  | kickstart.a65:1383
 A109  EA        EOM                  | kickstart.a65:1384
 A10A  A9 00     LDA   #$00         | kickstart.a65:1388
 A10C  85 09     STA   $09          | kickstart.a65:1389
 A10E  A9 40     LDA   #$40         | kickstart.a65:1390
 A110  85 0A     STA   $0A          | kickstart.a65:1391
 A112  A0 00     LDY   #$00         | kickstart.a65:1393
 A114  AD 02 CE  LDA   $CE02          | kickstart.a65:1394
 A117  18        CLC                  | kickstart.a65:1395
 A118  71 09     ADC   ($09), Y     | kickstart.a65:1396
 A11A  8D 02 CE  STA   $CE02          | kickstart.a65:1397
 A11D  93 0A 00  BCC   $A129          | kickstart.a65:1398
 A120  EE 03 CE  INC   $CE03          | kickstart.a65:1399
 A123  93 04 00  BCC   $A129          | kickstart.a65:1400
 A126  EE 04 CE  INC   $CE04          | kickstart.a65:1401
 A129  C8        INY                  | kickstart.a65:1402
 A12A  D0 E8     BNE   $0014          | kickstart.a65:1403
 A12C  E6 0A     INC   $0A          | kickstart.a65:1404
 A12E  A5 0A     LDA   $0A          | kickstart.a65:1405
 A130  C9 80     CMP   #$80         | kickstart.a65:1406
 A132  D0 DE     BNE   $0012          | kickstart.a65:1407
 A134  EE 00 CE  INC   $CE00          | kickstart.a65:1409
 A137  AD 00 CE  LDA   $CE00          | kickstart.a65:1410
 A13A  C9 10     CMP   #$10         | kickstart.a65:1411
 A13C  D0 AF     BNE   $00ED          | kickstart.a65:1412
 A13E  4C 7A A4  JMP   $A47A          | kickstart.a65:1414
 A141  A9 40     LDA   #$40         | kickstart.a65:1423
 A143  8D 30 D0  STA   $D030          | kickstart.a65:1424
 A146  AD 31 D0  LDA   $D031          | kickstart.a65:1426
 A149  29 40     AND   #$40         | kickstart.a65:1427
 A14B  8D 31 D0  STA   $D031          | kickstart.a65:1428
 A14E  A9 00     LDA   #$00         | kickstart.a65:1430
 A150  8D 20 D0  STA   $D020          | kickstart.a65:1431
 A153  8D 21 D0  STA   $D021          | kickstart.a65:1432
 A156  A9 38     LDA   #$38         | kickstart.a65:1436
 A158  8D 54 D0  STA   $D054          | kickstart.a65:1437
 A15B  A9 14     LDA   #$14         | kickstart.a65:1442
 A15D  8D 18 D0  STA   $D018          | kickstart.a65:1443
 A160  A9 1B     LDA   #$1B         | kickstart.a65:1445
 A162  8D 11 D0  STA   $D011          | kickstart.a65:1446
 A165  A9 C8     LDA   #$C8         | kickstart.a65:1448
 A167  8D 16 D0  STA   $D016          | kickstart.a65:1449
 A16A  A9 FF     LDA   #$FF         | kickstart.a65:1453
 A16C  8D 01 DD  STA   $DD01          | kickstart.a65:1454
 A16F  8D 00 DD  STA   $DD00          | kickstart.a65:1455
 A172  A9 05     LDA   #$05         | kickstart.a65:1460
 A174  0C 54 D0  TSB   $D054          | kickstart.a65:1461
 A177  A9 50     LDA   #$50         | kickstart.a65:1465
 A179  8D 58 D0  STA   $D058          | kickstart.a65:1466
 A17C  A9 00     LDA   #$00         | kickstart.a65:1467
 A17E  8D 59 D0  STA   $D059          | kickstart.a65:1468
 A181  60        RTS                  | kickstart.a65:1470
 A182  A9 04     LDA   #$04         | kickstart.a65:1479
 A184  0C 30 D0  TSB   $D030          | kickstart.a65:1480
 A187  A9 FF     LDA   #$FF         | kickstart.a65:1482
 A189  8D 70 D0  STA   $D070          | kickstart.a65:1483
 A18C  A9 00     LDA   #$00         | kickstart.a65:1490
 A18E  8D 00 D1  STA   $D100          | kickstart.a65:1491
 A191  8D 00 D2  STA   $D200          | kickstart.a65:1492
 A194  8D 00 D3  STA   $D300          | kickstart.a65:1493
 A197  A9 FF     LDA   #$FF         | kickstart.a65:1495
 A199  8D 01 D1  STA   $D101          | kickstart.a65:1496
 A19C  8D 01 D2  STA   $D201          | kickstart.a65:1497
 A19F  8D 01 D3  STA   $D301          | kickstart.a65:1498
 A1A2  A9 BA     LDA   #$BA         | kickstart.a65:1500
 A1A4  8D 02 D1  STA   $D102          | kickstart.a65:1501
 A1A7  A9 13     LDA   #$13         | kickstart.a65:1502
 A1A9  8D 02 D2  STA   $D202          | kickstart.a65:1503
 A1AC  A9 62     LDA   #$62         | kickstart.a65:1504
 A1AE  8D 02 D3  STA   $D302          | kickstart.a65:1505
 A1B1  A9 66     LDA   #$66         | kickstart.a65:1507
 A1B3  8D 03 D1  STA   $D103          | kickstart.a65:1508
 A1B6  A9 AD     LDA   #$AD         | kickstart.a65:1509
 A1B8  8D 03 D2  STA   $D203          | kickstart.a65:1510
 A1BB  A9 FF     LDA   #$FF         | kickstart.a65:1511
 A1BD  8D 03 D3  STA   $D303          | kickstart.a65:1512
 A1C0  A9 BB     LDA   #$BB         | kickstart.a65:1514
 A1C2  8D 04 D1  STA   $D104          | kickstart.a65:1515
 A1C5  A9 F3     LDA   #$F3         | kickstart.a65:1516
 A1C7  8D 04 D2  STA   $D204          | kickstart.a65:1517
 A1CA  A9 8B     LDA   #$8B         | kickstart.a65:1518
 A1CC  8D 04 D3  STA   $D304          | kickstart.a65:1519
 A1CF  A9 55     LDA   #$55         | kickstart.a65:1521
 A1D1  8D 05 D1  STA   $D105          | kickstart.a65:1522
 A1D4  A9 EC     LDA   #$EC         | kickstart.a65:1523
 A1D6  8D 05 D2  STA   $D205          | kickstart.a65:1524
 A1D9  A9 85     LDA   #$85         | kickstart.a65:1525
 A1DB  8D 05 D3  STA   $D305          | kickstart.a65:1526
 A1DE  A9 D1     LDA   #$D1         | kickstart.a65:1528
 A1E0  8D 06 D1  STA   $D106          | kickstart.a65:1529
 A1E3  A9 E0     LDA   #$E0         | kickstart.a65:1530
 A1E5  8D 06 D2  STA   $D206          | kickstart.a65:1531
 A1E8  A9 79     LDA   #$79         | kickstart.a65:1532
 A1EA  8D 06 D3  STA   $D306          | kickstart.a65:1533
 A1ED  A9 AE     LDA   #$AE         | kickstart.a65:1535
 A1EF  8D 07 D1  STA   $D107          | kickstart.a65:1536
 A1F2  A9 5F     LDA   #$5F         | kickstart.a65:1537
 A1F4  8D 07 D2  STA   $D207          | kickstart.a65:1538
 A1F7  A9 C7     LDA   #$C7         | kickstart.a65:1539
 A1F9  8D 07 D3  STA   $D307          | kickstart.a65:1540
 A1FC  A9 9B     LDA   #$9B         | kickstart.a65:1542
 A1FE  8D 08 D1  STA   $D108          | kickstart.a65:1543
 A201  A9 47     LDA   #$47         | kickstart.a65:1544
 A203  8D 08 D2  STA   $D208          | kickstart.a65:1545
 A206  A9 81     LDA   #$81         | kickstart.a65:1546
 A208  8D 08 D3  STA   $D308          | kickstart.a65:1547
 A20B  A9 87     LDA   #$87         | kickstart.a65:1549
 A20D  8D 09 D1  STA   $D109          | kickstart.a65:1550
 A210  A9 37     LDA   #$37         | kickstart.a65:1551
 A212  8D 09 D2  STA   $D209          | kickstart.a65:1552
 A215  A9 00     LDA   #$00         | kickstart.a65:1553
 A217  8D 09 D3  STA   $D309          | kickstart.a65:1554
 A21A  A9 DD     LDA   #$DD         | kickstart.a65:1556
 A21C  8D 0A D1  STA   $D10A          | kickstart.a65:1557
 A21F  A9 39     LDA   #$39         | kickstart.a65:1558
 A221  8D 0A D2  STA   $D20A          | kickstart.a65:1559
 A224  A9 78     LDA   #$78         | kickstart.a65:1560
 A226  8D 0A D3  STA   $D30A          | kickstart.a65:1561
 A229  A9 B5     LDA   #$B5         | kickstart.a65:1563
 A22B  8D 0B D1  STA   $D10B          | kickstart.a65:1564
 A22E  8D 0B D2  STA   $D20B          | kickstart.a65:1565
 A231  8D 0B D3  STA   $D30B          | kickstart.a65:1566
 A234  A9 B8     LDA   #$B8         | kickstart.a65:1568
 A236  8D 0C D1  STA   $D10C          | kickstart.a65:1569
 A239  8D 0C D2  STA   $D20C          | kickstart.a65:1570
 A23C  8D 0C D3  STA   $D30C          | kickstart.a65:1571
 A23F  A9 0B     LDA   #$0B         | kickstart.a65:1573
 A241  8D 0D D1  STA   $D10D          | kickstart.a65:1574
 A244  A9 4F     LDA   #$4F         | kickstart.a65:1575
 A246  8D 0D D2  STA   $D20D          | kickstart.a65:1576
 A249  A9 CA     LDA   #$CA         | kickstart.a65:1577
 A24B  8D 0D D3  STA   $D30D          | kickstart.a65:1578
 A24E  A9 AA     LDA   #$AA         | kickstart.a65:1580
 A250  8D 0E D1  STA   $D10E          | kickstart.a65:1581
 A253  A9 D9     LDA   #$D9         | kickstart.a65:1582
 A255  8D 0E D2  STA   $D20E          | kickstart.a65:1583
 A258  A9 FE     LDA   #$FE         | kickstart.a65:1584
 A25A  8D 0E D3  STA   $D30E          | kickstart.a65:1585
 A25D  A9 8B     LDA   #$8B         | kickstart.a65:1587
 A25F  8D 0F D1  STA   $D10F          | kickstart.a65:1588
 A262  8D 0F D2  STA   $D20F          | kickstart.a65:1589
 A265  8D 0F D3  STA   $D30F          | kickstart.a65:1590
 A268  60        RTS                  | kickstart.a65:1593
 A269  A9 01     LDA   #$01         | kickstart.a65:1602
 A26B  0C 30 D0  TSB   $D030          | kickstart.a65:1603
 A26E  A9 20     LDA   #$20         | kickstart.a65:1615
 A270  8D 00 04  STA   $0400          | kickstart.a65:1616
 A273  8D 02 04  STA   $0402          | kickstart.a65:1617
 A276  A9 00     LDA   #$00         | kickstart.a65:1618
 A278  8D 01 04  STA   $0401          | kickstart.a65:1619
 A27B  8D 03 04  STA   $0403          | kickstart.a65:1620
 A27E  A9 FF     LDA   #$FF         | kickstart.a65:1625
 A280  8D 02 D7  STA   $D702          | kickstart.a65:1626
 A283  A9 FF     LDA   #$FF         | kickstart.a65:1634
 A285  8D 04 D7  STA   $D704          | kickstart.a65:1635
 A288  A9 00     LDA   #$00         | kickstart.a65:1639
 A28A  8D 05 D7  STA   $D705          | kickstart.a65:1640
 A28D  A9 00     LDA   #$00         | kickstart.a65:1644
 A28F  8D 06 D7  STA   $D706          | kickstart.a65:1645
 A292  A9 A2     LDA   #$A2         | kickstart.a65:1647
 A294  8D 01 D7  STA   $D701          | kickstart.a65:1648
 A297  A9 F9     LDA   #$F9         | kickstart.a65:1652
 A299  8D 00 D7  STA   $D700          | kickstart.a65:1653
 A29C  A9 00     LDA   #$00         | kickstart.a65:1657
 A29E  8D 05 D7  STA   $D705          | kickstart.a65:1658
 A2A1  A9 01     LDA   #$01         | kickstart.a65:1662
 A2A3  1C 30 D0  TRB   $D030          | kickstart.a65:1663
 A2A6  A9 08     LDA   #$08         | kickstart.a65:1670
 A2A8  8D 01 CE  STA   $CE01          | kickstart.a65:1671
 A2AB  A0 00     LDY   #$00         | kickstart.a65:1675
 A2AD  A9 00     LDA   #$00         | kickstart.a65:1676
 A2AF  99 00 04  STA   $0400, Y       | kickstart.a65:1677
 A2B2  1A        INC                  | kickstart.a65:1678
 A2B3  C8        INY                  | kickstart.a65:1679
 A2B4  C8        INY                  | kickstart.a65:1680
 A2B5  D3 F8 FF  BNE   $A2AF          | kickstart.a65:1681
 A2B8  99 00 05  STA   $0500, Y       | kickstart.a65:1682
 A2BB  1A        INC                  | kickstart.a65:1683
 A2BC  C8        INY                  | kickstart.a65:1684
 A2BD  C8        INY                  | kickstart.a65:1685
 A2BE  D3 F8 FF  BNE   $A2B8          | kickstart.a65:1686
 A2C1  99 00 06  STA   $0600, Y       | kickstart.a65:1687
 A2C4  1A        INC                  | kickstart.a65:1688
 A2C5  C8        INY                  | kickstart.a65:1689
 A2C6  C8        INY                  | kickstart.a65:1690
 A2C7  C0 80     CPY   #$80         | kickstart.a65:1691
 A2C9  D3 F6 FF  BNE   $A2C1          | kickstart.a65:1692
 A2CC  A2 00     LDX   #$00         | kickstart.a65:1697
 A2CE  A9 01     LDA   #$01         | kickstart.a65:1698
 A2D0  9D 01 04  STA   $0401, X       | kickstart.a65:1699
 A2D3  1A        INC                  | kickstart.a65:1700
 A2D4  9D 81 05  STA   $0581, X       | kickstart.a65:1701
 A2D7  3A        DEC                  | kickstart.a65:1702
 A2D8  9D 01 05  STA   $0501, X       | kickstart.a65:1703
 A2DB  E8        INX                  | kickstart.a65:1704
 A2DC  E8        INX                  | kickstart.a65:1705
 A2DD  D3 F1 FF  BNE   $A2D0          | kickstart.a65:1706
 A2E0  A2 10     LDX   #$10         | kickstart.a65:1710
 A2E2  BD 00 3D  LDA   $3D00, X       | kickstart.a65:1711
 A2E5  9D 00 D1  STA   $D100, X       | kickstart.a65:1712
 A2E8  BD 00 3E  LDA   $3E00, X       | kickstart.a65:1713
 A2EB  9D 00 D2  STA   $D200, X       | kickstart.a65:1714
 A2EE  BD 00 3F  LDA   $3F00, X       | kickstart.a65:1715
 A2F1  9D 00 D3  STA   $D300, X       | kickstart.a65:1716
 A2F4  E8        INX                  | kickstart.a65:1717
 A2F5  D3 EB FF  BNE   $A2E2          | kickstart.a65:1718
 A2F8  60        RTS                  | kickstart.a65:1720
 A2F9  04 CC 07 00 04 00 04 04 00 00 00 07 D0 07 01 00  |................|
 A309  00 00 D8 80 00 00 00 00 60 00 40 00 00 40 00 00  |........`.@..@..|
 A319  00                                               |.               |
 A31A  86 0D     STX   $0D          | kickstart.a65:1772
 A31C  84 0E     STY   $0E          | kickstart.a65:1773
 A31E  A9 00     LDA   #$00         | kickstart.a65:1775
 A320  85 0F     STA   $0F          | kickstart.a65:1776
 A322  A9 04     LDA   #$04         | kickstart.a65:1777
 A324  85 10     STA   $10          | kickstart.a65:1778
 A326  AE 01 CE  LDX   $CE01          | kickstart.a65:1780
 A329  D3 03 00  BNE   $A32E          | kickstart.a65:1783
 A32C  A2 08     LDX   #$08         | kickstart.a65:1784
 A32E  E0 19     CPX   #$19         | kickstart.a65:1790
 A330  D3 06 00  BNE   $A338          | kickstart.a65:1791
 A333  A2 08     LDX   #$08         | kickstart.a65:1792
 A335  8E 01 CE  STX   $CE01          | kickstart.a65:1793
 A338  E0 00     CPX   #$00         | kickstart.a65:1797
 A33A  F3 26 00  BEQ   $A362          | kickstart.a65:1798
 A33D  18        CLC                  | kickstart.a65:1799
 A33E  A5 0F     LDA   $0F          | kickstart.a65:1800
 A340  69 50     ADC   #$50         | kickstart.a65:1801
 A342  85 0F     STA   $0F          | kickstart.a65:1802
 A344  A5 10     LDA   $10          | kickstart.a65:1803
 A346  69 00     ADC   #$00         | kickstart.a65:1804
 A348  85 10     STA   $10          | kickstart.a65:1805
 A34A  C9 0B     CMP   #$0B         | kickstart.a65:1809
 A34C  93 10 00  BCC   $A35E          | kickstart.a65:1810
 A34F  A5 0F     LDA   $0F          | kickstart.a65:1811
 A351  C9 D0     CMP   #$D0         | kickstart.a65:1812
 A353  93 09 00  BCC   $A35E          | kickstart.a65:1813
 A356  A9 80     LDA   #$80         | kickstart.a65:1815
 A358  85 0F     STA   $0F          | kickstart.a65:1816
 A35A  A9 06     LDA   #$06         | kickstart.a65:1817
 A35C  85 10     STA   $10          | kickstart.a65:1818
 A35E  CA        DEX                  | kickstart.a65:1819
 A35F  D3 D7 FF  BNE   $A338          | kickstart.a65:1820
 A362  A0 00     LDY   #$00         | kickstart.a65:1825
 A364  A9 20     LDA   #$20         | kickstart.a65:1826
 A366  91 0F     STA   ($0F), Y     | kickstart.a65:1827
 A368  C8        INY                  | kickstart.a65:1828
 A369  A9 00     LDA   #$00         | kickstart.a65:1829
 A36B  91 0F     STA   ($0F), Y     | kickstart.a65:1830
 A36D  C8        INY                  | kickstart.a65:1831
 A36E  C0 50     CPY   #$50         | kickstart.a65:1832
 A370  D3 F2 FF  BNE   $A364          | kickstart.a65:1833
 A373  DB        PHZ                  | kickstart.a65:1836
 A374  A0 00     LDY   #$00         | kickstart.a65:1837
 A376  A3 00     LDZ   #$00         | kickstart.a65:1838
 A378  B1 0D     LDA   ($0D), Y     | kickstart.a65:1839
 A37A  F3 16 00  BEQ   $A392          | kickstart.a65:1840
 A37D  C9 40     CMP   #$40         | kickstart.a65:1844
 A37F  93 03 00  BCC   $A384          | kickstart.a65:1845
 A382  29 1F     AND   #$1F         | kickstart.a65:1846
 A384  92 0F     STA   ($0F), Z     | kickstart.a65:1850
 A386  1B        INZ                  | kickstart.a65:1851
 A387  48        PHA                  | kickstart.a65:1852
 A388  A9 00     LDA   #$00         | kickstart.a65:1853
 A38A  92 0F     STA   ($0F), Z     | kickstart.a65:1854
 A38C  68        PLA                  | kickstart.a65:1855
 A38D  C8        INY                  | kickstart.a65:1856
 A38E  1B        INZ                  | kickstart.a65:1857
 A38F  D3 E7 FF  BNE   $A378          | kickstart.a65:1858
 A392  EE 01 CE  INC   $CE01          | kickstart.a65:1860
 A395  FB        PLZ                  | kickstart.a65:1862
 A396  60        RTS                  | kickstart.a65:1863
 A397  86 0D     STX   $0D          | kickstart.a65:1868
 A399  84 0E     STY   $0E          | kickstart.a65:1869
 A39B  A9 04     LDA   #$04         | kickstart.a65:1870
 A39D  8D 0F BF  STA   $BF0F          | kickstart.a65:1871
 A3A0  A9 05     LDA   #$05         | kickstart.a65:1872
 A3A2  8D 10 BF  STA   $BF10          | kickstart.a65:1873
 A3A5  20 73 A3  JSR   $A373          | kickstart.a65:1874
 A3A8  CE 01 CE  DEC   $CE01          | kickstart.a65:1875
 A3AB  60        RTS                  | kickstart.a65:1876
 A3AC  6B        TZA                  | kickstart.a65:1892
 A3AD  4A        LSR                  | kickstart.a65:1893
 A3AE  4A        LSR                  | kickstart.a65:1894
 A3AF  4A        LSR                  | kickstart.a65:1895
 A3B0  4A        LSR                  | kickstart.a65:1896
 A3B1  20 B7 A3  JSR   $A3B7          | kickstart.a65:1897
 A3B4  6B        TZA                  | kickstart.a65:1898
 A3B5  29 0F     AND   #$0F         | kickstart.a65:1899
 A3B7  AA        TAX                  | kickstart.a65:1903
 A3B8  B1 0F     LDA   ($0F), Y     | kickstart.a65:1904
 A3BA  C9 24     CMP   #$24         | kickstart.a65:1905
 A3BC  F3 09 00  BEQ   $A3C7          | kickstart.a65:1906
 A3BF  C8        INY                  | kickstart.a65:1907
 A3C0  C8        INY                  | kickstart.a65:1908
 A3C1  C0 50     CPY   #$50         | kickstart.a65:1909
 A3C3  D3 F3 FF  BNE   $A3B8          | kickstart.a65:1910
 A3C6  60        RTS                  | kickstart.a65:1911
 A3C7  8A        TXA                  | kickstart.a65:1913
 A3C8  09 30     ORA   #$30         | kickstart.a65:1914
 A3CA  C9 3A     CMP   #$3A         | kickstart.a65:1915
 A3CC  93 03 00  BCC   $A3D1          | kickstart.a65:1916
 A3CF  E9 39     SBC   #$39         | kickstart.a65:1917
 A3D1  91 0F     STA   ($0F), Y     | kickstart.a65:1918
 A3D3  C8        INY                  | kickstart.a65:1919
 A3D4  C8        INY                  | kickstart.a65:1920
 A3D5  60        RTS                  | kickstart.a65:1921
 A3D6  AD F1 D6  LDA   $D6F1          | kickstart.a65:1934
 A3D9  13 0E 00  BPL   $A3E9          | kickstart.a65:1935
 A3DC  A2 5E     LDX   #$5E         | kickstart.a65:1939
 A3DE  A0 AC     LDY   #$AC         | kickstart.a65:1940
 A3E0  20 1A A3  JSR   $A31A          | kickstart.a65:1941
 A3E3  AD F1 D6  LDA   $D6F1          | kickstart.a65:1943
 A3E6  33 FB FF  BMI   $A3E3          | kickstart.a65:1944
 A3E9  A9 82     LDA   #$82         | kickstart.a65:1949
 A3EB  8D 80 D6  STA   $D680          | kickstart.a65:1950
 A3EE  A2 00     LDX   #$00         | kickstart.a65:1960
 A3F0  8A        TXA                  | kickstart.a65:1961
 A3F1  9D 00 08  STA   $0800, X       | kickstart.a65:1962
 A3F4  E8        INX                  | kickstart.a65:1963
 A3F5  D3 FA FF  BNE   $A3F1          | kickstart.a65:1964
 A3F8  A9 38     LDA   #$38         | kickstart.a65:1968
 A3FA  8D 54 D0  STA   $D054          | kickstart.a65:1969
 A3FD  A9 28     LDA   #$28         | kickstart.a65:1971
 A3FF  8D 58 D0  STA   $D058          | kickstart.a65:1972
 A402  A9 00     LDA   #$00         | kickstart.a65:1973
 A404  8D 59 D0  STA   $D059          | kickstart.a65:1974
 A407  A9 04     LDA   #$04         | kickstart.a65:1977
 A409  0C 7D D6  TSB   $D67D          | kickstart.a65:1978
 A40C  20 43 97  JSR   $9743          | kickstart.a65:1980
 A40F  20 8F 97  JSR   $978F          | kickstart.a65:1981
 A412  20 B3 97  JSR   $97B3          | kickstart.a65:1982
 A415  8D 7F D6  STA   $D67F          | kickstart.a65:1987
 A418  8D 05 D7  STA   $D705          | kickstart.a65:2003
 A41B  A9 FF     LDA   #$FF         | kickstart.a65:2004
 A41D  8D 06 D7  STA   $D706          | kickstart.a65:2005
 A420  8E 41 A4  STX   $A441          | kickstart.a65:2006
 A423  8C 42 A4  STY   $A442          | kickstart.a65:2007
 A426  9C 43 A4  STZ   $A443          | kickstart.a65:2008
 A429  A9 A4     LDA   #$A4         | kickstart.a65:2012
 A42B  8D 01 D7  STA   $D701          | kickstart.a65:2013
 A42E  A9 0F     LDA   #$0F         | kickstart.a65:2014
 A430  8D 02 D7  STA   $D702          | kickstart.a65:2015
 A433  A9 FF     LDA   #$FF         | kickstart.a65:2016
 A435  8D 04 D7  STA   $D704          | kickstart.a65:2017
 A438  A9 3E     LDA   #$3E         | kickstart.a65:2021
 A43A  8D 00 D7  STA   $D700          | kickstart.a65:2022
 A43D  60        RTS                  | kickstart.a65:2023
 A43E  00 01 00 00 00 00 00 BC 0F 00 00                 |...........     |
 A449  8D 72 A4  STA   $A472          | kickstart.a65:2046
 A44C  8E 75 A4  STX   $A475          | kickstart.a65:2047
 A44F  8C 76 A4  STY   $A476          | kickstart.a65:2048
 A452  9C 77 A4  STZ   $A477          | kickstart.a65:2049
 A455  A9 00     LDA   #$00         | kickstart.a65:2050
 A457  8D 06 D7  STA   $D706          | kickstart.a65:2051
 A45A  A9 A4     LDA   #$A4         | kickstart.a65:2055
 A45C  8D 01 D7  STA   $D701          | kickstart.a65:2056
 A45F  A9 0F     LDA   #$0F         | kickstart.a65:2057
 A461  8D 02 D7  STA   $D702          | kickstart.a65:2058
 A464  A9 FF     LDA   #$FF         | kickstart.a65:2059
 A466  8D 04 D7  STA   $D704          | kickstart.a65:2060
 A469  A9 6F     LDA   #$6F         | kickstart.a65:2064
 A46B  8D 00 D7  STA   $D700          | kickstart.a65:2065
 A46E  60        RTS                  | kickstart.a65:2066
 A46F  03 01 00 00 00 00 00 00 0F 00 00                 |...........     |
 A47A  A9 00     LDA   #$00         | kickstart.a65:2088
 A47C  A2 0F     LDX   #$0F         | kickstart.a65:2089
 A47E  A0 00     LDY   #$00         | kickstart.a65:2090
 A480  A3 3F     LDZ   #$3F         | kickstart.a65:2091
 A482  5C        MAP                  | kickstart.a65:2093
 A483  AA        TAX                  | kickstart.a65:2097
 A484  A0 00     LDY   #$00         | kickstart.a65:2098
 A486  A3 3F     LDZ   #$3F         | kickstart.a65:2099
 A488  5C        MAP                  | kickstart.a65:2101
 A489  EA        EOM                  | kickstart.a65:2102
 A48A  60        RTS                  | kickstart.a65:2104
 A48B  B3 07 00  BCS   $A494          | kickstart.a65:2114
 A48E  A9 00     LDA   #$00         | kickstart.a65:2117
 A490  8D 2F D0  STA   $D02F          | kickstart.a65:2118
 A493  60        RTS                  | kickstart.a65:2119
 A494  A9 47     LDA   #$47         | kickstart.a65:2123
 A496  8D 2F D0  STA   $D02F          | kickstart.a65:2124
 A499  A9 53     LDA   #$53         | kickstart.a65:2125
 A49B  8D 2F D0  STA   $D02F          | kickstart.a65:2126
 A49E  60        RTS                  | kickstart.a65:2127
 A49F  AD 10 D6  LDA   $D610          | /home/lgb/prog_here/mega65-core-lgb/src/kickstart_keyboard.a65:3
 A4A2  C9 00     CMP   #$00         | /home/lgb/prog_here/mega65-core-lgb/src/kickstart_keyboard.a65:4
 A4A4  F3 03 00  BEQ   $A4A9          | /home/lgb/prog_here/mega65-core-lgb/src/kickstart_keyboard.a65:5
 A4A7  18        CLC                  | /home/lgb/prog_here/mega65-core-lgb/src/kickstart_keyboard.a65:6
 A4A8  60        RTS                  | /home/lgb/prog_here/mega65-core-lgb/src/kickstart_keyboard.a65:7
 A4A9  38        SEC                  | /home/lgb/prog_here/mega65-core-lgb/src/kickstart_keyboard.a65:9
 A4AA  60        RTS                  | /home/lgb/prog_here/mega65-core-lgb/src/kickstart_keyboard.a65:10
 A4AB  20 9F A4  JSR   $A49F          | /home/lgb/prog_here/mega65-core-lgb/src/kickstart_keyboard.a65:13
 A4AE  8D 10 D6  STA   $D610          | /home/lgb/prog_here/mega65-core-lgb/src/kickstart_keyboard.a65:14
 A4B1  60        RTS                  | /home/lgb/prog_here/mega65-core-lgb/src/kickstart_keyboard.a65:15
 A4B2  20 AB A4  JSR   $A4AB          | kickstart.a65:2138
 A4B5  B3 06 00  BCS   $A4BD          | kickstart.a65:2139
 A4B8  C9 FF     CMP   #$FF         | kickstart.a65:2140
 A4BA  D3 03 00  BNE   $A4BF          | kickstart.a65:2141
 A4BD  A9 20     LDA   #$20         | kickstart.a65:2142
 A4BF  A2 06     LDX   #$06         | kickstart.a65:2147
 A4C1  C9 20     CMP   #$20         | kickstart.a65:2148
 A4C3  F3 05 00  BEQ   $A4CA          | kickstart.a65:2149
 A4C6  9D E5 AD  STA   $ADE5, X       | kickstart.a65:2150
 A4C9  E8        INX                  | kickstart.a65:2151
 A4CA  A9 2E     LDA   #$2E         | kickstart.a65:2153
 A4CC  9D E5 AD  STA   $ADE5, X       | kickstart.a65:2154
 A4CF  E8        INX                  | kickstart.a65:2155
 A4D0  A9 52     LDA   #$52         | kickstart.a65:2156
 A4D2  9D E5 AD  STA   $ADE5, X       | kickstart.a65:2157
 A4D5  E8        INX                  | kickstart.a65:2158
 A4D6  A9 4F     LDA   #$4F         | kickstart.a65:2159
 A4D8  9D E5 AD  STA   $ADE5, X       | kickstart.a65:2160
 A4DB  E8        INX                  | kickstart.a65:2161
 A4DC  A9 4D     LDA   #$4D         | kickstart.a65:2162
 A4DE  9D E5 AD  STA   $ADE5, X       | kickstart.a65:2163
 A4E1  E8        INX                  | kickstart.a65:2164
 A4E2  A9 00     LDA   #$00         | kickstart.a65:2165
 A4E4  9D E5 AD  STA   $ADE5, X       | kickstart.a65:2166
 A4E7  60        RTS                  | kickstart.a65:2168
 A4E8  AD F1 D6  LDA   $D6F1          | kickstart.a65:2177
 A4EB  29 01     AND   #$01         | kickstart.a65:2178
 A4ED  D3 02 00  BNE   $A4F1          | kickstart.a65:2179
 A4F0  60        RTS                  | kickstart.a65:2180
 A4F1  A9 47     LDA   #$47         | kickstart.a65:2183
 A4F3  8D 2F D0  STA   $D02F          | kickstart.a65:2184
 A4F6  A9 53     LDA   #$53         | kickstart.a65:2185
 A4F8  8D 2F D0  STA   $D02F          | kickstart.a65:2186
 A4FB  A9 FF     LDA   #$FF         | kickstart.a65:2191
 A4FD  A2 0F     LDX   #$0F         | kickstart.a65:2192
 A4FF  A0 00     LDY   #$00         | kickstart.a65:2193
 A501  A3 3F     LDZ   #$3F         | kickstart.a65:2194
 A503  5C        MAP                  | kickstart.a65:2195
 A504  EA        EOM                  | kickstart.a65:2196
 A505  A9 80     LDA   #$80         | kickstart.a65:2201
 A507  A2 8D     LDX   #$8D         | kickstart.a65:2202
 A509  A0 00     LDY   #$00         | kickstart.a65:2203
 A50B  A3 3F     LDZ   #$3F         | kickstart.a65:2204
 A50D  5C        MAP                  | kickstart.a65:2205
 A50E  EA        EOM                  | kickstart.a65:2206
 A50F  AD E1 D6  LDA   $D6E1          | kickstart.a65:2217
 A512  4A        LSR                  | kickstart.a65:2218
 A513  29 02     AND   #$02         | kickstart.a65:2219
 A515  09 01     ORA   #$01         | kickstart.a65:2220
 A517  8D E1 D6  STA   $D6E1          | kickstart.a65:2221
 A51A  60        RTS                  | kickstart.a65:2223
 A51B  AD F1 D6  LDA   $D6F1          | kickstart.a65:2227
 A51E  29 01     AND   #$01         | kickstart.a65:2228
 A520  D3 02 00  BNE   $A524          | kickstart.a65:2229
 A523  60        RTS                  | kickstart.a65:2230
 A524  AD E1 D6  LDA   $D6E1          | kickstart.a65:2233
 A527  29 20     AND   #$20         | kickstart.a65:2234
 A529  D3 02 00  BNE   $A52D          | kickstart.a65:2235
 A52C  60        RTS                  | kickstart.a65:2236
 A52D  AD E1 D6  LDA   $D6E1          | kickstart.a65:2240
 A530  29 04     AND   #$04         | kickstart.a65:2241
 A532  4A        LSR                  | kickstart.a65:2242
 A533  09 01     ORA   #$01         | kickstart.a65:2243
 A535  8D E1 D6  STA   $D6E1          | kickstart.a65:2244
 A538  A2 09     LDX   #$09         | kickstart.a65:2254
 A53A  BD 0E 68  LDA   $680E, X       | kickstart.a65:2256
 A53D  DD C7 A5  CMP   $A5C7, X       | kickstart.a65:2257
 A540  D3 59 00  BNE   $A59B          | kickstart.a65:2258
 A543  CA        DEX                  | kickstart.a65:2259
 A544  13 F4 FF  BPL   $A53A          | kickstart.a65:2260
 A547  AD 2B 68  LDA   $682B          | kickstart.a65:2263
 A54A  C9 41     CMP   #$41         | kickstart.a65:2264
 A54C  D3 4D 00  BNE   $A59B          | kickstart.a65:2265
 A54F  A9 2A     LDA   #$2A         | kickstart.a65:2275
 A551  8D E2 D6  STA   $D6E2          | kickstart.a65:2276
 A554  A9 00     LDA   #$00         | kickstart.a65:2277
 A556  8D E3 D6  STA   $D6E3          | kickstart.a65:2278
 A559  A2 14     LDX   #$14         | kickstart.a65:2282
 A55B  BD 02 68  LDA   $6802, X       | kickstart.a65:2284
 A55E  9D 00 68  STA   $6800, X       | kickstart.a65:2285
 A561  CA        DEX                  | kickstart.a65:2286
 A562  13 F7 FF  BPL   $A55B          | kickstart.a65:2287
 A565  A2 05     LDX   #$05         | kickstart.a65:2290
 A567  BD 08 68  LDA   $6808, X       | kickstart.a65:2292
 A56A  9D 00 68  STA   $6800, X       | kickstart.a65:2293
 A56D  A9 40     LDA   #$40         | kickstart.a65:2294
 A56F  9D 06 68  STA   $6806, X       | kickstart.a65:2295
 A572  9D 16 68  STA   $6816, X       | kickstart.a65:2296
 A575  CA        DEX                  | kickstart.a65:2297
 A576  13 EF FF  BPL   $A567          | kickstart.a65:2298
 A579  A9 02     LDA   #$02         | kickstart.a65:2300
 A57B  8D 15 68  STA   $6815          | kickstart.a65:2301
 A57E  A2 03     LDX   #$03         | kickstart.a65:2303
 A580  BD 28 68  LDA   $6828, X       | kickstart.a65:2306
 A583  9D 1C 68  STA   $681C, X       | kickstart.a65:2307
 A586  CA        DEX                  | kickstart.a65:2308
 A587  13 F7 FF  BPL   $A580          | kickstart.a65:2309
 A58A  A2 09     LDX   #$09         | kickstart.a65:2311
 A58C  BD 18 68  LDA   $6818, X       | kickstart.a65:2313
 A58F  9D 20 68  STA   $6820, X       | kickstart.a65:2314
 A592  CA        DEX                  | kickstart.a65:2315
 A593  13 F7 FF  BPL   $A58C          | kickstart.a65:2316
 A596  A9 01     LDA   #$01         | kickstart.a65:2319
 A598  8D E4 D6  STA   $D6E4          | kickstart.a65:2320
 A59B  AD 10 68  LDA   $6810          | kickstart.a65:2324
 A59E  C9 45     CMP   #$45         | kickstart.a65:2325
 A5A0  D3 24 00  BNE   $A5C6          | kickstart.a65:2326
 A5A3  AD 19 68  LDA   $6819          | kickstart.a65:2328
 A5A6  C9 11     CMP   #$11         | kickstart.a65:2329
 A5A8  D3 1C 00  BNE   $A5C6          | kickstart.a65:2330
 A5AB  AD 26 68  LDA   $6826          | kickstart.a65:2332
 A5AE  C9 11     CMP   #$11         | kickstart.a65:2333
 A5B0  D3 14 00  BNE   $A5C6          | kickstart.a65:2334
 A5B3  AD 27 68  LDA   $6827          | kickstart.a65:2335
 A5B6  C9 9F     CMP   #$9F         | kickstart.a65:2336
 A5B8  D3 0C 00  BNE   $A5C6          | kickstart.a65:2337
 A5BB  AD 2C 68  LDA   $682C          | kickstart.a65:2343
 A5BE  C9 A9     CMP   #$A9         | kickstart.a65:2344
 A5C0  D3 04 00  BNE   $A5C6          | kickstart.a65:2345
 A5C3  20 2C 68  JSR   $682C          | kickstart.a65:2346
 A5C6  60        RTS                  | kickstart.a65:2349
 A5C7  08 06 00 01 08 00 06 04 00 01                    |..........      |
 A5D1  C9 0A     CMP   #$0A         | kickstart.a65:2355
 A5D3  B3 04 00  BCS   $A5D9          | kickstart.a65:2356
 A5D6  09 30     ORA   #$30         | kickstart.a65:2357
 A5D8  60        RTS                  | kickstart.a65:2358
 A5D9  38        SEC                  | kickstart.a65:2359
 A5DA  E9 09     SBC   #$09         | kickstart.a65:2360
 A5DC  60        RTS                  | kickstart.a65:2361
 A5DD  78        SEI                  | kickstart.a65:2370
 A5DE  40        RTI                  | kickstart.a65:2371
 A5DF  AD 42 D6  LDA   $D642          | kickstart.a65:2381
 A5E2  33 3B 00  BMI   $A61F          | kickstart.a65:2382
 A5E5  C9 7F     CMP   #$7F         | kickstart.a65:2383
 A5E7  F3 36 00  BEQ   $A61F          | kickstart.a65:2384
 A5EA  8D 08 BF  STA   $BF08          | kickstart.a65:2385
 A5ED  A9 00     LDA   #$00         | kickstart.a65:2386
 A5EF  8D 07 BF  STA   $BF07          | kickstart.a65:2387
 A5F2  20 4F A6  JSR   $A64F          | kickstart.a65:2389
 A5F5  00 68 79 70 65 72 76 69 73 6F 72 5F 73 65 74 75  |.hypervisor_setu|
 A605  70 5F 63 6F 70 79 5F 72 65 67 69 6F 6E 20 3C 73  |p_copy_region <s|
 A615  75 63 63 65 73 73 3E 00                          |uccess>.        |
 A61D  38        SEC                  | kickstart.a65:2392
 A61E  60        RTS                  | kickstart.a65:2393
 A61F  20 4F A6  JSR   $A64F          | kickstart.a65:2396
 A622  00 68 79 70 65 72 76 69 73 6F 72 5F 73 65 74 75  |.hypervisor_setu|
 A632  70 5F 63 6F 70 79 5F 72 65 67 69 6F 6E 20 3C 66  |p_copy_region <f|
 A642  61 69 6C 75 72 65 3E 00                          |ailure>.        |
 A64A  A9 10     LDA   #$10         | kickstart.a65:2399
 A64C  4C 99 8A  JMP   $8A99          | kickstart.a65:2400
 A64F  8D 2D BF  STA   $BF2D          | kickstart.a65:2413
 A652  8E 2E BF  STX   $BF2E          | kickstart.a65:2414
 A655  8C 2F BF  STY   $BF2F          | kickstart.a65:2415
 A658  9C 30 BF  STZ   $BF30          | kickstart.a65:2416
 A65B  08        PHP                  | kickstart.a65:2417
 A65C  68        PLA                  | kickstart.a65:2418
 A65D  8D 31 BF  STA   $BF31          | kickstart.a65:2419
 A660  68        PLA                  | kickstart.a65:2423
 A661  18        CLC                  | kickstart.a65:2424
 A662  69 01     ADC   #$01         | kickstart.a65:2425
 A664  8D 32 BF  STA   $BF32          | kickstart.a65:2426
 A667  68        PLA                  | kickstart.a65:2427
 A668  69 00     ADC   #$00         | kickstart.a65:2428
 A66A  8D 33 BF  STA   $BF33          | kickstart.a65:2429
 A66D  AD F1 D6  LDA   $D6F1          | kickstart.a65:2432
 A670  29 10     AND   #$10         | kickstart.a65:2433
 A672  F3 63 00  BEQ   $A6D7          | kickstart.a65:2434
 A675  EE 20 D0  INC   $D020          | kickstart.a65:2436
 A678  AE 2D BF  LDX   $BF2D          | kickstart.a65:2439
 A67B  20 3A A7  JSR   $A73A          | kickstart.a65:2440
 A67E  8C F6 A8  STY   $A8F6          | kickstart.a65:2441
 A681  8E F7 A8  STX   $A8F7          | kickstart.a65:2442
 A684  AE 2E BF  LDX   $BF2E          | kickstart.a65:2444
 A687  20 3A A7  JSR   $A73A          | kickstart.a65:2445
 A68A  8C FC A8  STY   $A8FC          | kickstart.a65:2446
 A68D  8E FD A8  STX   $A8FD          | kickstart.a65:2447
 A690  AE 2F BF  LDX   $BF2F          | kickstart.a65:2449
 A693  20 3A A7  JSR   $A73A          | kickstart.a65:2450
 A696  8C 02 A9  STY   $A902          | kickstart.a65:2451
 A699  8E 03 A9  STX   $A903          | kickstart.a65:2452
 A69C  AE 30 BF  LDX   $BF30          | kickstart.a65:2454
 A69F  20 3A A7  JSR   $A73A          | kickstart.a65:2455
 A6A2  8C 08 A9  STY   $A908          | kickstart.a65:2456
 A6A5  8E 09 A9  STX   $A909          | kickstart.a65:2457
 A6A8  AE 31 BF  LDX   $BF31          | kickstart.a65:2459
 A6AB  20 3A A7  JSR   $A73A          | kickstart.a65:2460
 A6AE  8C 0E A9  STY   $A90E          | kickstart.a65:2461
 A6B1  8E 0F A9  STX   $A90F          | kickstart.a65:2462
 A6B4  AE 33 BF  LDX   $BF33          | kickstart.a65:2464
 A6B7  20 3A A7  JSR   $A73A          | kickstart.a65:2465
 A6BA  8C EF A8  STY   $A8EF          | kickstart.a65:2466
 A6BD  8E F0 A8  STX   $A8F0          | kickstart.a65:2467
 A6C0  AE 32 BF  LDX   $BF32          | kickstart.a65:2469
 A6C3  20 3A A7  JSR   $A73A          | kickstart.a65:2470
 A6C6  8C F1 A8  STY   $A8F1          | kickstart.a65:2471
 A6C9  8E F2 A8  STX   $A8F2          | kickstart.a65:2472
 A6CC  A2 3B     LDX   #$3B         | kickstart.a65:2475
 A6CE  A9 20     LDA   #$20         | kickstart.a65:2476
 A6D0  9D 12 A9  STA   $A912, X       | kickstart.a65:2477
 A6D3  CA        DEX                  | kickstart.a65:2478
 A6D4  13 FA FF  BPL   $A6D0          | kickstart.a65:2479
 A6D7  A0 00     LDY   #$00         | kickstart.a65:2490
 A6D9  B1 32     LDA   ($32), Y     | kickstart.a65:2491
 A6DB  D3 1D 00  BNE   $A6FA          | kickstart.a65:2493
 A6DE  A2 00     LDX   #$00         | kickstart.a65:2496
 A6E0  C8        INY                  | kickstart.a65:2497
 A6E1  B1 32     LDA   ($32), Y     | kickstart.a65:2498
 A6E3  F3 14 00  BEQ   $A6F9          | kickstart.a65:2499
 A6E6  9D 12 A9  STA   $A912, X       | kickstart.a65:2500
 A6E9  E8        INX                  | kickstart.a65:2501
 A6EA  C8        INY                  | kickstart.a65:2502
 A6EB  C0 3C     CPY   #$3C         | kickstart.a65:2503
 A6ED  D3 F2 FF  BNE   $A6E1          | kickstart.a65:2504
 A6F0  B1 32     LDA   ($32), Y     | kickstart.a65:2507
 A6F2  F3 05 00  BEQ   $A6F9          | kickstart.a65:2508
 A6F5  C8        INY                  | kickstart.a65:2509
 A6F6  83 F8 FF  BRA   $A6F0          | kickstart.a65:2510
 A6F9  C8        INY                  | kickstart.a65:2515
 A6FA  98        TYA                  | kickstart.a65:2520
 A6FB  18        CLC                  | kickstart.a65:2521
 A6FC  6D 32 BF  ADC   $BF32          | kickstart.a65:2522
 A6FF  8D 32 BF  STA   $BF32          | kickstart.a65:2523
 A702  AD 33 BF  LDA   $BF33          | kickstart.a65:2524
 A705  69 00     ADC   #$00         | kickstart.a65:2525
 A707  8D 33 BF  STA   $BF33          | kickstart.a65:2526
 A70A  AD F1 D6  LDA   $D6F1          | kickstart.a65:2529
 A70D  29 10     AND   #$10         | kickstart.a65:2530
 A70F  F3 15 00  BEQ   $A726          | kickstart.a65:2531
 A712  A2 00     LDX   #$00         | kickstart.a65:2534
 A714  AD 7C D6  LDA   $D67C          | kickstart.a65:2539
 A717  D3 FB FF  BNE   $A714          | kickstart.a65:2540
 A71A  BD EE A8  LDA   $A8EE, X       | kickstart.a65:2543
 A71D  8D 7C D6  STA   $D67C          | kickstart.a65:2544
 A720  E8        INX                  | kickstart.a65:2545
 A721  C9 0A     CMP   #$0A         | kickstart.a65:2549
 A723  D3 EF FF  BNE   $A714          | kickstart.a65:2550
 A726  AD 31 BF  LDA   $BF31          | kickstart.a65:2554
 A729  08        PHP                  | kickstart.a65:2555
 A72A  AD 2D BF  LDA   $BF2D          | kickstart.a65:2556
 A72D  AE 2E BF  LDX   $BF2E          | kickstart.a65:2557
 A730  AC 2F BF  LDY   $BF2F          | kickstart.a65:2558
 A733  AB 30 BF  LDZ   $BF30          | kickstart.a65:2559
 A736  28        PLP                  | kickstart.a65:2560
 A737  6C 32 BF  JMP   ($BF32)        | kickstart.a65:2563
 A73A  8A        TXA                  | kickstart.a65:2575
 A73B  29 F0     AND   #$F0         | kickstart.a65:2576
 A73D  4A        LSR                  | kickstart.a65:2577
 A73E  4A        LSR                  | kickstart.a65:2578
 A73F  4A        LSR                  | kickstart.a65:2579
 A740  4A        LSR                  | kickstart.a65:2580
 A741  20 4D A7  JSR   $A74D          | kickstart.a65:2581
 A744  A8        TAY                  | kickstart.a65:2582
 A745  8A        TXA                  | kickstart.a65:2583
 A746  29 0F     AND   #$0F         | kickstart.a65:2584
 A748  20 4D A7  JSR   $A74D          | kickstart.a65:2585
 A74B  AA        TAX                  | kickstart.a65:2586
 A74C  60        RTS                  | kickstart.a65:2587
 A74D  29 0F     AND   #$0F         | kickstart.a65:2593
 A74F  09 30     ORA   #$30         | kickstart.a65:2594
 A751  C9 3A     CMP   #$3A         | kickstart.a65:2595
 A753  B3 02 00  BCS   $A757          | kickstart.a65:2596
 A756  60        RTS                  | kickstart.a65:2597
 A757  69 06     ADC   #$06         | kickstart.a65:2599
 A759  60        RTS                  | kickstart.a65:2600
 A75A  A2 D5     LDX   #$D5         | kickstart.a65:2607
 A75C  A0 A8     LDY   #$A8         | kickstart.a65:2608
 A75E  20 1A A3  JSR   $A31A          | kickstart.a65:2609
 A761  A9 30     LDA   #$30         | kickstart.a65:2612
 A763  8D 09 BF  STA   $BF09          | kickstart.a65:2613
 A766  20 C4 A8  JSR   $A8C4          | kickstart.a65:2615
 A769  20 86 A8  JSR   $A886          | kickstart.a65:2617
 A76C  93 35 00  BCC   $A7A3          | kickstart.a65:2618
 A76F  A0 27     LDY   #$27         | kickstart.a65:2621
 A771  A9 20     LDA   #$20         | kickstart.a65:2622
 A773  99 4F A8  STA   $A84F, Y       | kickstart.a65:2623
 A776  88        DEY                  | kickstart.a65:2624
 A777  C0 02     CPY   #$02         | kickstart.a65:2625
 A779  D3 F8 FF  BNE   $A773          | kickstart.a65:2626
 A77C  C8        INY                  | kickstart.a65:2627
 A77D  EE 09 BF  INC   $BF09          | kickstart.a65:2628
 A780  AD 09 BF  LDA   $BF09          | kickstart.a65:2629
 A783  8D 4F A8  STA   $A84F          | kickstart.a65:2630
 A786  A3 04     LDZ   #$04         | kickstart.a65:2631
 A788  EA        NOP                  | kickstart.a65:2632
 A789  B2 11     LDA   ($11), Z     | kickstart.a65:2633
 A78B  99 4F A8  STA   $A84F, Y       | kickstart.a65:2634
 A78E  F3 06 00  BEQ   $A796          | kickstart.a65:2635
 A791  C8        INY                  | kickstart.a65:2636
 A792  1B        INZ                  | kickstart.a65:2637
 A793  83 F3 FF  BRA   $A788          | kickstart.a65:2638
 A796  A2 4F     LDX   #$4F         | kickstart.a65:2641
 A798  A0 A8     LDY   #$A8         | kickstart.a65:2642
 A79A  20 1A A3  JSR   $A31A          | kickstart.a65:2643
 A79D  20 77 A8  JSR   $A877          | kickstart.a65:2645
 A7A0  83 C7 FF  BRA   $A769          | kickstart.a65:2647
 A7A3  20 AB A4  JSR   $A4AB          | kickstart.a65:2652
 A7A6  C9 FF     CMP   #$FF         | kickstart.a65:2653
 A7A8  F3 F9 FF  BEQ   $A7A3          | kickstart.a65:2654
 A7AB  C9 31     CMP   #$31         | kickstart.a65:2655
 A7AD  93 F4 FF  BCC   $A7A3          | kickstart.a65:2656
 A7B0  C9 39     CMP   #$39         | kickstart.a65:2657
 A7B2  B3 EF FF  BCS   $A7A3          | kickstart.a65:2658
 A7B5  29 0F     AND   #$0F         | kickstart.a65:2661
 A7B7  AA        TAX                  | kickstart.a65:2662
 A7B8  CA        DEX                  | kickstart.a65:2663
 A7B9  20 C4 A8  JSR   $A8C4          | kickstart.a65:2664
 A7BC  20 86 A8  JSR   $A886          | kickstart.a65:2665
 A7BF  93 E2 FF  BCC   $A7A3          | kickstart.a65:2667
 A7C2  CA        DEX                  | kickstart.a65:2668
 A7C3  33 07 00  BMI   $A7CC          | kickstart.a65:2669
 A7C6  20 77 A8  JSR   $A877          | kickstart.a65:2670
 A7C9  83 F1 FF  BRA   $A7BC          | kickstart.a65:2671
 A7CC  EE 21 D0  INC   $D021          | kickstart.a65:2674
 A7CF  A3 24     LDZ   #$24         | kickstart.a65:2685
 A7D1  EA        NOP                  | kickstart.a65:2686
 A7D2  B2 11     LDA   ($11), Z     | kickstart.a65:2687
 A7D4  8D 45 A8  STA   $A845          | kickstart.a65:2688
 A7D7  1B        INZ                  | kickstart.a65:2689
 A7D8  EA        NOP                  | kickstart.a65:2690
 A7D9  B2 11     LDA   ($11), Z     | kickstart.a65:2691
 A7DB  8D 46 A8  STA   $A846          | kickstart.a65:2692
 A7DE  A5 11     LDA   $11          | kickstart.a65:2693
 A7E0  18        CLC                  | kickstart.a65:2694
 A7E1  69 2C     ADC   #$2C         | kickstart.a65:2695
 A7E3  8D 47 A8  STA   $A847          | kickstart.a65:2696
 A7E6  A5 12     LDA   $12          | kickstart.a65:2697
 A7E8  69 00     ADC   #$00         | kickstart.a65:2698
 A7EA  8D 48 A8  STA   $A848          | kickstart.a65:2699
 A7ED  A9 FF     LDA   #$FF         | kickstart.a65:2704
 A7EF  8D 02 D7  STA   $D702          | kickstart.a65:2705
 A7F2  8D 04 D7  STA   $D704          | kickstart.a65:2706
 A7F5  8D 05 D7  STA   $D705          | kickstart.a65:2709
 A7F8  1A        INC                  | kickstart.a65:2712
 A7F9  8D 06 D7  STA   $D706          | kickstart.a65:2713
 A7FC  A9 A8     LDA   #$A8         | kickstart.a65:2714
 A7FE  8D 01 D7  STA   $D701          | kickstart.a65:2715
 A801  A9 44     LDA   #$44         | kickstart.a65:2716
 A803  8D 00 D7  STA   $D700          | kickstart.a65:2717
 A806  A9 05     LDA   #$05         | kickstart.a65:2720
 A808  1C 54 D0  TRB   $D054          | kickstart.a65:2721
 A80B  A9 28     LDA   #$28         | kickstart.a65:2724
 A80D  8D 58 D0  STA   $D058          | kickstart.a65:2725
 A810  A9 00     LDA   #$00         | kickstart.a65:2726
 A812  8D 59 D0  STA   $D059          | kickstart.a65:2727
 A815  A9 25     LDA   #$25         | kickstart.a65:2730
 A817  8D 18 D0  STA   $D018          | kickstart.a65:2731
 A81A  A3 26     LDZ   #$26         | kickstart.a65:2735
 A81C  EA        NOP                  | kickstart.a65:2736
 A81D  B2 11     LDA   ($11), Z     | kickstart.a65:2737
 A81F  8D 48 D6  STA   $D648          | kickstart.a65:2738
 A822  1B        INZ                  | kickstart.a65:2739
 A823  EA        NOP                  | kickstart.a65:2740
 A824  B2 11     LDA   ($11), Z     | kickstart.a65:2741
 A826  8D 49 D6  STA   $D649          | kickstart.a65:2742
 A829  20 43 97  JSR   $9743          | kickstart.a65:2744
 A82C  A9 3F     LDA   #$3F         | kickstart.a65:2745
 A82E  8D 50 D6  STA   $D650          | kickstart.a65:2746
 A831  A9 35     LDA   #$35         | kickstart.a65:2747
 A833  8D 51 D6  STA   $D651          | kickstart.a65:2748
 A836  A9 60     LDA   #$60         | kickstart.a65:2753
 A838  A2 D2     LDX   #$D2         | kickstart.a65:2754
 A83A  A0 FF     LDY   #$FF         | kickstart.a65:2755
 A83C  A3 02     LDZ   #$02         | kickstart.a65:2756
 A83E  20 49 A4  JSR   $A449          | kickstart.a65:2757
 A841  8D 7F D6  STA   $D67F          | kickstart.a65:2760
 A844  00 FF FF FF FF 08 FF 07 00 00 00 31 2E 20 33 32  |...........1. 32|
 A854  20 43 48 41 52 41 43 54 45 52 53 20 4F 46 20 55  | CHARACTERS OF U|
 A864  54 49 4C 49 54 59 20 4E 41 4D 45 2E 2E 2E 20 20  |TILITY NAME...  |
 A874  20 20 00                                         |  .             |
 A877  A3 2A     LDZ   #$2A         | kickstart.a65:2780
 A879  EA        NOP                  | kickstart.a65:2781
 A87A  B2 11     LDA   ($11), Z     | kickstart.a65:2782
 A87C  AA        TAX                  | kickstart.a65:2783
 A87D  1B        INZ                  | kickstart.a65:2784
 A87E  EA        NOP                  | kickstart.a65:2785
 A87F  B2 11     LDA   ($11), Z     | kickstart.a65:2786
 A881  85 12     STA   $12          | kickstart.a65:2789
 A883  86 11     STX   $11          | kickstart.a65:2790
 A885  60        RTS                  | kickstart.a65:2791
 A886  A3 00     LDZ   #$00         | kickstart.a65:2795
 A888  EA        NOP                  | kickstart.a65:2798
 A889  B2 11     LDA   ($11), Z     | kickstart.a65:2799
 A88B  C9 4D     CMP   #$4D         | kickstart.a65:2800
 A88D  D3 33 00  BNE   $A8C2          | kickstart.a65:2801
 A890  1B        INZ                  | kickstart.a65:2802
 A891  EA        NOP                  | kickstart.a65:2803
 A892  B2 11     LDA   ($11), Z     | kickstart.a65:2804
 A894  C9 36     CMP   #$36         | kickstart.a65:2805
 A896  D3 2A 00  BNE   $A8C2          | kickstart.a65:2806
 A899  1B        INZ                  | kickstart.a65:2807
 A89A  EA        NOP                  | kickstart.a65:2808
 A89B  B2 11     LDA   ($11), Z     | kickstart.a65:2809
 A89D  C9 35     CMP   #$35         | kickstart.a65:2810
 A89F  D3 21 00  BNE   $A8C2          | kickstart.a65:2811
 A8A2  1B        INZ                  | kickstart.a65:2812
 A8A3  EA        NOP                  | kickstart.a65:2813
 A8A4  B2 11     LDA   ($11), Z     | kickstart.a65:2814
 A8A6  C9 55     CMP   #$55         | kickstart.a65:2815
 A8A8  D3 18 00  BNE   $A8C2          | kickstart.a65:2816
 A8AB  A3 28     LDZ   #$28         | kickstart.a65:2819
 A8AD  EA        NOP                  | kickstart.a65:2820
 A8AE  B2 11     LDA   ($11), Z     | kickstart.a65:2821
 A8B0  CD 11 BF  CMP   $BF11          | kickstart.a65:2822
 A8B3  D3 0D 00  BNE   $A8C2          | kickstart.a65:2823
 A8B6  1B        INZ                  | kickstart.a65:2824
 A8B7  EA        NOP                  | kickstart.a65:2825
 A8B8  B2 11     LDA   ($11), Z     | kickstart.a65:2826
 A8BA  CD 12 BF  CMP   $BF12          | kickstart.a65:2827
 A8BD  D3 03 00  BNE   $A8C2          | kickstart.a65:2828
 A8C0  38        SEC                  | kickstart.a65:2831
 A8C1  60        RTS                  | kickstart.a65:2832
 A8C2  18        CLC                  | kickstart.a65:2835
 A8C3  60        RTS                  | kickstart.a65:2836
 A8C4  A9 00     LDA   #$00         | kickstart.a65:2840
 A8C6  85 11     STA   $11          | kickstart.a65:2841
 A8C8  A9 08     LDA   #$08         | kickstart.a65:2842
 A8CA  85 12     STA   $12          | kickstart.a65:2843
 A8CC  A9 F8     LDA   #$F8         | kickstart.a65:2844
 A8CE  85 13     STA   $13          | kickstart.a65:2845
 A8D0  A9 0F     LDA   #$0F         | kickstart.a65:2846
 A8D2  85 14     STA   $14          | kickstart.a65:2847
 A8D4  60        RTS                  | kickstart.a65:2849
 A8D5  53 45 4C 45 43 54 20 55 54 49 4C 49 54 59 20 54  |SELECT UTILITY T|
 A8E5  4F 20 4C 41 55 4E 43 48 00 24 25 25 25 25 20 41  |O LAUNCH.$%%%% A|
 A8F5  3A 25 25 2C 20 58 3A 25 25 2C 20 59 3A 25 25 2C  |:%%, X:%%, Y:%%,|
 A905  20 5A 3A 25 25 2C 20 50 3A 25 25 20 3A 20 20 20  | Z:%%, P:%% :   |
 A915  20 20 20 20 20 20 20 20 20 20 20 20 20 20 20 20  |                |
 A925  20 20 20 20 20 20 20 20 20 20 20 20 20 20 20 20  |                |
 A935  20 20 20 20 20 20 20 20 20 20 20 20 20 20 20 20  |                |
 A945  20 20 20 20 20 20 20 20 20 20 0D 0A 52 45 2D 54  |          ..RE-T|
 A955  52 59 49 4E 47 20 54 4F 20 52 45 41 44 20 4D 42  |RYING TO READ MB|
 A965  52 00 4D 45 47 41 36 35 20 4D 45 47 41 4F 53 20  |R.MEGA65 MEGAOS |
 A975  48 59 50 45 52 56 49 53 4F 52 20 56 30 30 2E 31  |HYPERVISOR V00.1|
 A985  31 00 53 57 31 35 3D 48 4F 4C 44 2D 42 4F 4F 54  |1.SW15=HOLD-BOOT|
 A995  2C 20 53 57 31 32 3D 44 45 42 55 47 2D 43 4F 4D  |, SW12=DEBUG-COM|
 A9A5  4D 53 00 52 4F 4D 20 43 48 45 43 4B 53 55 4D 20  |MS.ROM CHECKSUM |
 A9B5  4F 4B 20 2D 20 42 4F 4F 54 49 4E 47 00 52 4F 4D  |OK - BOOTING.ROM|
 A9C5  20 43 48 45 43 4B 53 55 4D 20 46 41 49 4C 20 2D  | CHECKSUM FAIL -|
 A9D5  20 4C 4F 41 44 49 4E 47 20 52 4F 4D 53 00 43 4F  | LOADING ROMS.CO|
 A9E5  55 4C 44 20 4E 4F 54 20 4C 4F 41 44 20 43 48 41  |ULD NOT LOAD CHA|
 A9F5  52 52 4F 4D 2E 4D 36 35 00 4C 4F 41 44 45 44 20  |RROM.M65.LOADED |
 AA05  43 48 41 52 52 4F 4D 2E 4D 36 35 20 28 24 24 24  |CHARROM.M65 ($$$|
 AA15  24 20 50 41 47 45 53 29 00 4C 4F 41 44 45 44 20  |$ PAGES).LOADED |
 AA25  4D 45 47 41 36 35 52 4F 4D 2E 4D 36 35 20 28 24  |MEGA65ROM.M65 ($|
 AA35  24 24 24 20 50 41 47 45 53 29 00 4C 4F 4F 4B 49  |$$$ PAGES).LOOKI|
 AA45  4E 47 20 46 4F 52 20 53 44 43 41 52 44 2E 2E 2E  |NG FOR SDCARD...|
 AA55  00 46 4F 55 4E 44 20 41 4E 44 20 52 45 53 45 54  |.FOUND AND RESET|
 AA65  20 53 44 43 41 52 44 00 45 52 52 4F 52 20 52 45  | SDCARD.ERROR RE|
 AA75  41 44 49 4E 47 20 46 52 4F 4D 20 53 44 20 43 41  |ADING FROM SD CA|
 AA85  52 44 00 52 45 2D 52 45 41 44 49 4E 47 20 53 44  |RD.RE-READING SD|
 AA95  43 41 52 44 00 42 41 44 20 4D 42 52 20 4F 52 20  |CARD.BAD MBR OR |
 AAA5  44 4F 53 20 42 4F 4F 54 20 53 45 43 54 4F 52 2E  |DOS BOOT SECTOR.|
 AAB5  00 52 45 41 44 20 50 41 52 54 49 54 49 4F 4E 20  |.READ PARTITION |
 AAC5  54 41 42 4C 45 20 46 52 4F 4D 20 53 44 43 41 52  |TABLE FROM SDCAR|
 AAD5  44 00 46 4F 55 4E 44 20 52 4F 4D 20 46 49 4C 45  |D.FOUND ROM FILE|
 AAE5  2E 20 53 54 41 52 54 20 43 4C 55 53 54 45 52 20  |. START CLUSTER |
 AAF5  3D 20 24 24 24 24 24 24 24 24 00 44 49 53 4B 2D  |= $$$$$$$$.DISK-|
 AB05  43 4F 55 4E 54 3D 24 24 2C 20 44 45 46 41 55 4C  |COUNT=$$, DEFAUL|
 AB15  54 2D 44 49 53 4B 3D 24 24 00 44 49 53 4B 2D 54  |T-DISK=$$.DISK-T|
 AB25  41 42 4C 45 3A 00 42 42 24 24 3A 24 24 2E 24 24  |ABLE:.BB$$:$$.$$|
 AB35  2E 24 24 2E 24 24 2E 24 24 2E 24 24 2E 24 24 2E  |.$$.$$.$$.$$.$$.|
 AB45  24 24 00 4C 4F 4F 4B 49 4E 47 20 46 4F 52 20 24  |$$.LOOKING FOR $|
 AB55  24 20 42 59 54 45 53 2C 20 49 20 53 45 45 20 24  |$ BYTES, I SEE $|
 AB65  24 20 42 59 54 45 53 00 43 4F 55 4C 44 20 4E 4F  |$ BYTES.COULD NO|
 AB75  54 20 4F 50 45 4E 20 52 4F 4D 20 46 49 4C 45 20  |T OPEN ROM FILE |
 AB85  46 4F 52 20 52 45 41 44 49 4E 47 00 52 45 41 44  |FOR READING.READ|
 AB95  49 4E 47 20 52 4F 4D 20 46 49 4C 45 2E 2E 2E 00  |ING ROM FILE....|
 ABA5  52 4F 4D 20 54 4F 4F 20 4C 4F 4E 47 3A 20 28 52  |ROM TOO LONG: (R|
 ABB5  45 41 44 20 24 24 24 24 20 50 41 47 45 53 29 00  |EAD $$$$ PAGES).|
 ABC5  52 4F 4D 20 54 4F 4F 20 53 48 4F 52 54 3A 20 28  |ROM TOO SHORT: (|
 ABD5  52 45 41 44 20 24 24 24 24 20 50 41 47 45 53 29  |READ $$$$ PAGES)|
 ABE5  00 43 55 52 52 45 4E 54 20 43 4C 55 53 54 45 52  |.CURRENT CLUSTER|
 ABF5  3D 24 24 24 24 24 24 24 24 00 43 55 52 52 45 4E  |=$$$$$$$$.CURREN|
 AC05  54 20 53 45 43 54 4F 52 3D 20 24 24 24 24 24 24  |T SECTOR= $$$$$$|
 AC15  24 24 00 43 41 4E 4E 4F 54 20 4D 4F 55 4E 54 20  |$$.CANNOT MOUNT |
 AC25  4D 45 47 41 36 35 2E 44 38 31 20 2D 20 28 45 52  |MEGA65.D81 - (ER|
 AC35  52 4E 4F 3A 20 24 24 29 00 4D 45 47 41 36 35 2E  |RNO: $$).MEGA65.|
 AC45  44 38 31 20 53 55 43 43 45 53 53 46 55 4C 4C 59  |D81 SUCCESSFULLY|
 AC55  20 4D 4F 55 4E 54 45 44 00 52 45 4C 45 41 53 45  | MOUNTED.RELEASE|
 AC65  20 53 57 31 35 20 54 4F 20 43 4F 4E 54 49 4E 55  | SW15 TO CONTINU|
 AC75  45 20 42 4F 4F 54 49 4E 47 2E 00 43 4F 55 4C 44  |E BOOTING..COULD|
 AC85  20 4E 4F 54 20 46 49 4E 44 20 52 4F 4D 20 4D 45  | NOT FIND ROM ME|
 AC95  47 41 36 35 58 58 52 4F 4D 00 4C 4F 41 44 49 4E  |GA65XXROM.LOADIN|
 ACA5  47 20 4B 49 43 4B 55 50 2E 4D 36 35 20 49 4E 54  |G KICKUP.M65 INT|
 ACB5  4F 20 48 59 50 45 52 56 49 53 4F 52 00 4E 4F 20  |O HYPERVISOR.NO |
 ACC5  4B 49 43 4B 55 50 2E 4D 36 35 20 54 4F 20 4C 4F  |KICKUP.M65 TO LO|
 ACD5  41 44 20 28 4F 52 20 42 52 4F 4B 45 4E 29 00 4B  |AD (OR BROKEN).K|
 ACE5  49 43 4B 55 50 20 4C 4F 41 44 45 44 20 54 4F 20  |ICKUP LOADED TO |
 ACF5  30 30 30 30 34 30 30 30 20 2D 20 24 24 24 24 24  |00004000 - $$$$$|
 AD05  24 24 24 00 52 55 4E 4E 49 4E 47 20 4B 49 43 4B  |$$$.RUNNING KICK|
 AD15  45 44 20 48 59 50 45 52 56 49 53 4F 52 00 42 4F  |ED HYPERVISOR.BO|
 AD25  4F 54 49 4E 47 20 56 49 41 20 45 54 48 45 52 4B  |OTING VIA ETHERK|
 AD35  49 43 4B 3A 20 55 44 50 20 50 4F 52 54 20 34 35  |ICK: UDP PORT 45|
 AD45  31 31 00 4C 4F 4F 4B 49 4E 47 20 46 4F 52 20 4E  |11.LOOKING FOR N|
 AD55  45 58 54 20 53 45 43 54 4F 52 20 4F 46 20 46 49  |EXT SECTOR OF FI|
 AD65  4C 45 00 43 4F 55 4C 44 20 4E 4F 54 20 4C 4F 41  |LE.COULD NOT LOA|
 AD75  44 20 42 41 4E 4E 45 52 2E 4D 36 35 20 28 45 52  |D BANNER.M65 (ER|
 AD85  52 4E 4F 3A 24 24 29 00 43 4F 55 4C 44 20 4E 4F  |RNO:$$).COULD NO|
 AD95  54 20 43 48 44 49 52 20 54 4F 20 2F 20 28 45 52  |T CHDIR TO / (ER|
 ADA5  52 4E 4F 3A 24 24 29 00 47 49 54 3A 20 6D 36 35  |RNO:$$).GIT: m65|
 ADB5  70 63 62 2C 33 38 34 65 38 38 36 2C 30 39 31 30  |pcb,384e886,0910|
 ADC5  2D 32 31 35 36 00 00 43 30 30 30 55 54 49 4C 2E  |-2156..C000UTIL.|
 ADD5  42 49 4E 00 43 48 41 52 52 4F 4D 2E 4D 36 35 00  |BIN.CHARROM.M65.|
 ADE5  4D 45 47 41 36 35 2E 52 4F 4D 00 00 4D 45 47 41  |MEGA65.ROM..MEGA|
 ADF5  36 35 2E 44 38 31 00 4B 49 43 4B 55 50 2E 4D 36  |65.D81.KICKUP.M6|
 AE05  35 00 42 41 4E 4E 45 52 2E 4D 36 35 00           |5.BANNER.M65.   |
 AE12  AE F4 BC  LDX   $BCF4          | /home/lgb/prog_here/mega65-core-lgb/src/kickstart_debug.a65:22
 AE15  20 3A A7  JSR   $A73A          | /home/lgb/prog_here/mega65-core-lgb/src/kickstart_debug.a65:23
 AE18  8E 41 AE  STX   $AE41          | /home/lgb/prog_here/mega65-core-lgb/src/kickstart_debug.a65:24
 AE1B  8C 40 AE  STY   $AE40          | /home/lgb/prog_here/mega65-core-lgb/src/kickstart_debug.a65:25
 AE1E  AE F5 BC  LDX   $BCF5          | /home/lgb/prog_here/mega65-core-lgb/src/kickstart_debug.a65:27
 AE21  20 3A A7  JSR   $A73A          | /home/lgb/prog_here/mega65-core-lgb/src/kickstart_debug.a65:28
 AE24  8E 50 AE  STX   $AE50          | /home/lgb/prog_here/mega65-core-lgb/src/kickstart_debug.a65:29
 AE27  8C 4F AE  STY   $AE4F          | /home/lgb/prog_here/mega65-core-lgb/src/kickstart_debug.a65:30
 AE2A  20 4F A6  JSR   $A64F          | /home/lgb/prog_here/mega65-core-lgb/src/kickstart_debug.a65:32
 AE2D  00 63 75 72 72 65 6E 74 20 66 69 6C 65 20 64 65  |.current file de|
 AE3D  73 63 3D 78 78 2C 20 61 6E 64 20 6F 66 66 73 65  |sc=xx, and offse|
 AE4D  74 3D 78 78 2E 00                                |t=xx..          |
 AE53  60        RTS                  | /home/lgb/prog_here/mega65-core-lgb/src/kickstart_debug.a65:37
 AE54  AE B4 BC  LDX   $BCB4          | /home/lgb/prog_here/mega65-core-lgb/src/kickstart_debug.a65:46
 AE57  20 3A A7  JSR   $A73A          | /home/lgb/prog_here/mega65-core-lgb/src/kickstart_debug.a65:47
 AE5A  8E 23 AF  STX   $AF23          | /home/lgb/prog_here/mega65-core-lgb/src/kickstart_debug.a65:48
 AE5D  8C 22 AF  STY   $AF22          | /home/lgb/prog_here/mega65-core-lgb/src/kickstart_debug.a65:49
 AE60  AE B5 BC  LDX   $BCB5          | /home/lgb/prog_here/mega65-core-lgb/src/kickstart_debug.a65:50
 AE63  20 3A A7  JSR   $A73A          | /home/lgb/prog_here/mega65-core-lgb/src/kickstart_debug.a65:51
 AE66  8E 26 AF  STX   $AF26          | /home/lgb/prog_here/mega65-core-lgb/src/kickstart_debug.a65:52
 AE69  8C 25 AF  STY   $AF25          | /home/lgb/prog_here/mega65-core-lgb/src/kickstart_debug.a65:53
 AE6C  AE B6 BC  LDX   $BCB6          | /home/lgb/prog_here/mega65-core-lgb/src/kickstart_debug.a65:54
 AE6F  20 3A A7  JSR   $A73A          | /home/lgb/prog_here/mega65-core-lgb/src/kickstart_debug.a65:55
 AE72  8E 29 AF  STX   $AF29          | /home/lgb/prog_here/mega65-core-lgb/src/kickstart_debug.a65:56
 AE75  8C 28 AF  STY   $AF28          | /home/lgb/prog_here/mega65-core-lgb/src/kickstart_debug.a65:57
 AE78  AE B7 BC  LDX   $BCB7          | /home/lgb/prog_here/mega65-core-lgb/src/kickstart_debug.a65:58
 AE7B  20 3A A7  JSR   $A73A          | /home/lgb/prog_here/mega65-core-lgb/src/kickstart_debug.a65:59
 AE7E  8E 2C AF  STX   $AF2C          | /home/lgb/prog_here/mega65-core-lgb/src/kickstart_debug.a65:60
 AE81  8C 2B AF  STY   $AF2B          | /home/lgb/prog_here/mega65-core-lgb/src/kickstart_debug.a65:61
 AE84  AE B8 BC  LDX   $BCB8          | /home/lgb/prog_here/mega65-core-lgb/src/kickstart_debug.a65:62
 AE87  20 3A A7  JSR   $A73A          | /home/lgb/prog_here/mega65-core-lgb/src/kickstart_debug.a65:63
 AE8A  8E 2F AF  STX   $AF2F          | /home/lgb/prog_here/mega65-core-lgb/src/kickstart_debug.a65:64
 AE8D  8C 2E AF  STY   $AF2E          | /home/lgb/prog_here/mega65-core-lgb/src/kickstart_debug.a65:65
 AE90  AE B9 BC  LDX   $BCB9          | /home/lgb/prog_here/mega65-core-lgb/src/kickstart_debug.a65:66
 AE93  20 3A A7  JSR   $A73A          | /home/lgb/prog_here/mega65-core-lgb/src/kickstart_debug.a65:67
 AE96  8E 32 AF  STX   $AF32          | /home/lgb/prog_here/mega65-core-lgb/src/kickstart_debug.a65:68
 AE99  8C 31 AF  STY   $AF31          | /home/lgb/prog_here/mega65-core-lgb/src/kickstart_debug.a65:69
 AE9C  AE BA BC  LDX   $BCBA          | /home/lgb/prog_here/mega65-core-lgb/src/kickstart_debug.a65:70
 AE9F  20 3A A7  JSR   $A73A          | /home/lgb/prog_here/mega65-core-lgb/src/kickstart_debug.a65:71
 AEA2  8E 35 AF  STX   $AF35          | /home/lgb/prog_here/mega65-core-lgb/src/kickstart_debug.a65:72
 AEA5  8C 34 AF  STY   $AF34          | /home/lgb/prog_here/mega65-core-lgb/src/kickstart_debug.a65:73
 AEA8  AE BB BC  LDX   $BCBB          | /home/lgb/prog_here/mega65-core-lgb/src/kickstart_debug.a65:74
 AEAB  20 3A A7  JSR   $A73A          | /home/lgb/prog_here/mega65-core-lgb/src/kickstart_debug.a65:75
 AEAE  8E 38 AF  STX   $AF38          | /home/lgb/prog_here/mega65-core-lgb/src/kickstart_debug.a65:76
 AEB1  8C 37 AF  STY   $AF37          | /home/lgb/prog_here/mega65-core-lgb/src/kickstart_debug.a65:77
 AEB4  AE BC BC  LDX   $BCBC          | /home/lgb/prog_here/mega65-core-lgb/src/kickstart_debug.a65:80
 AEB7  20 3A A7  JSR   $A73A          | /home/lgb/prog_here/mega65-core-lgb/src/kickstart_debug.a65:81
 AEBA  8E 3D AF  STX   $AF3D          | /home/lgb/prog_here/mega65-core-lgb/src/kickstart_debug.a65:82
 AEBD  8C 3C AF  STY   $AF3C          | /home/lgb/prog_here/mega65-core-lgb/src/kickstart_debug.a65:83
 AEC0  AE BD BC  LDX   $BCBD          | /home/lgb/prog_here/mega65-core-lgb/src/kickstart_debug.a65:84
 AEC3  20 3A A7  JSR   $A73A          | /home/lgb/prog_here/mega65-core-lgb/src/kickstart_debug.a65:85
 AEC6  8E 40 AF  STX   $AF40          | /home/lgb/prog_here/mega65-core-lgb/src/kickstart_debug.a65:86
 AEC9  8C 3F AF  STY   $AF3F          | /home/lgb/prog_here/mega65-core-lgb/src/kickstart_debug.a65:87
 AECC  AE BE BC  LDX   $BCBE          | /home/lgb/prog_here/mega65-core-lgb/src/kickstart_debug.a65:88
 AECF  20 3A A7  JSR   $A73A          | /home/lgb/prog_here/mega65-core-lgb/src/kickstart_debug.a65:89
 AED2  8E 43 AF  STX   $AF43          | /home/lgb/prog_here/mega65-core-lgb/src/kickstart_debug.a65:90
 AED5  8C 42 AF  STY   $AF42          | /home/lgb/prog_here/mega65-core-lgb/src/kickstart_debug.a65:91
 AED8  AE BF BC  LDX   $BCBF          | /home/lgb/prog_here/mega65-core-lgb/src/kickstart_debug.a65:92
 AEDB  20 3A A7  JSR   $A73A          | /home/lgb/prog_here/mega65-core-lgb/src/kickstart_debug.a65:93
 AEDE  8E 46 AF  STX   $AF46          | /home/lgb/prog_here/mega65-core-lgb/src/kickstart_debug.a65:94
 AEE1  8C 45 AF  STY   $AF45          | /home/lgb/prog_here/mega65-core-lgb/src/kickstart_debug.a65:95
 AEE4  AE C0 BC  LDX   $BCC0          | /home/lgb/prog_here/mega65-core-lgb/src/kickstart_debug.a65:96
 AEE7  20 3A A7  JSR   $A73A          | /home/lgb/prog_here/mega65-core-lgb/src/kickstart_debug.a65:97
 AEEA  8E 49 AF  STX   $AF49          | /home/lgb/prog_here/mega65-core-lgb/src/kickstart_debug.a65:98
 AEED  8C 48 AF  STY   $AF48          | /home/lgb/prog_here/mega65-core-lgb/src/kickstart_debug.a65:99
 AEF0  AE C1 BC  LDX   $BCC1          | /home/lgb/prog_here/mega65-core-lgb/src/kickstart_debug.a65:100
 AEF3  20 3A A7  JSR   $A73A          | /home/lgb/prog_here/mega65-core-lgb/src/kickstart_debug.a65:101
 AEF6  8E 4C AF  STX   $AF4C          | /home/lgb/prog_here/mega65-core-lgb/src/kickstart_debug.a65:102
 AEF9  8C 4B AF  STY   $AF4B          | /home/lgb/prog_here/mega65-core-lgb/src/kickstart_debug.a65:103
 AEFC  AE C2 BC  LDX   $BCC2          | /home/lgb/prog_here/mega65-core-lgb/src/kickstart_debug.a65:104
 AEFF  20 3A A7  JSR   $A73A          | /home/lgb/prog_here/mega65-core-lgb/src/kickstart_debug.a65:105
 AF02  8E 4F AF  STX   $AF4F          | /home/lgb/prog_here/mega65-core-lgb/src/kickstart_debug.a65:106
 AF05  8C 4E AF  STY   $AF4E          | /home/lgb/prog_here/mega65-core-lgb/src/kickstart_debug.a65:107
 AF08  AE C3 BC  LDX   $BCC3          | /home/lgb/prog_here/mega65-core-lgb/src/kickstart_debug.a65:108
 AF0B  20 3A A7  JSR   $A73A          | /home/lgb/prog_here/mega65-core-lgb/src/kickstart_debug.a65:109
 AF0E  8E 52 AF  STX   $AF52          | /home/lgb/prog_here/mega65-core-lgb/src/kickstart_debug.a65:110
 AF11  8C 51 AF  STY   $AF51          | /home/lgb/prog_here/mega65-core-lgb/src/kickstart_debug.a65:111
 AF14  20 4F A6  JSR   $A64F          | /home/lgb/prog_here/mega65-core-lgb/src/kickstart_debug.a65:113
 AF17  00 46 69 6C 65 44 65 73 63 3C 3D 78 78 2C 78 78  |.FileDesc<=xx,xx|
 AF27  2C 78 78 2C 78 78 2C 78 78 2C 78 78 2C 78 78 2C  |,xx,xx,xx,xx,xx,|
 AF37  78 78 20 2D 20 78 78 2C 78 78 2C 78 78 2C 78 78  |xx - xx,xx,xx,xx|
 AF47  2C 78 78 2C 78 78 2C 78 78 2C 78 78 00           |,xx,xx,xx,xx.   |
 AF54  60        RTS                  | /home/lgb/prog_here/mega65-core-lgb/src/kickstart_debug.a65:134
 AF55  AE 84 D6  LDX   $D684          | /home/lgb/prog_here/mega65-core-lgb/src/kickstart_debug.a65:143
 AF58  20 3A A7  JSR   $A73A          | /home/lgb/prog_here/mega65-core-lgb/src/kickstart_debug.a65:144
 AF5B  8E 9B AF  STX   $AF9B          | /home/lgb/prog_here/mega65-core-lgb/src/kickstart_debug.a65:145
 AF5E  8C 9A AF  STY   $AF9A          | /home/lgb/prog_here/mega65-core-lgb/src/kickstart_debug.a65:146
 AF61  AE 83 D6  LDX   $D683          | /home/lgb/prog_here/mega65-core-lgb/src/kickstart_debug.a65:148
 AF64  20 3A A7  JSR   $A73A          | /home/lgb/prog_here/mega65-core-lgb/src/kickstart_debug.a65:149
 AF67  8E 9D AF  STX   $AF9D          | /home/lgb/prog_here/mega65-core-lgb/src/kickstart_debug.a65:150
 AF6A  8C 9C AF  STY   $AF9C          | /home/lgb/prog_here/mega65-core-lgb/src/kickstart_debug.a65:151
 AF6D  AE 82 D6  LDX   $D682          | /home/lgb/prog_here/mega65-core-lgb/src/kickstart_debug.a65:153
 AF70  20 3A A7  JSR   $A73A          | /home/lgb/prog_here/mega65-core-lgb/src/kickstart_debug.a65:154
 AF73  8E 9F AF  STX   $AF9F          | /home/lgb/prog_here/mega65-core-lgb/src/kickstart_debug.a65:155
 AF76  8C 9E AF  STY   $AF9E          | /home/lgb/prog_here/mega65-core-lgb/src/kickstart_debug.a65:156
 AF79  AE 81 D6  LDX   $D681          | /home/lgb/prog_here/mega65-core-lgb/src/kickstart_debug.a65:158
 AF7C  20 3A A7  JSR   $A73A          | /home/lgb/prog_here/mega65-core-lgb/src/kickstart_debug.a65:159
 AF7F  8E A1 AF  STX   $AFA1          | /home/lgb/prog_here/mega65-core-lgb/src/kickstart_debug.a65:160
 AF82  8C A0 AF  STY   $AFA0          | /home/lgb/prog_here/mega65-core-lgb/src/kickstart_debug.a65:161
 AF85  20 4F A6  JSR   $A64F          | /home/lgb/prog_here/mega65-core-lgb/src/kickstart_debug.a65:163
 AF88  00 73 64 5F 73 65 63 74 6F 72 3A 20 24 64 36 38  |.sd_sector: $d68|
 AF98  31 3D 78 78 78 78 78 78 78 78 2E 00              |1=xxxxxxxx..    |
 AFA4  60        RTS                  | /home/lgb/prog_here/mega65-core-lgb/src/kickstart_debug.a65:170
 AFA5  A2 FF     LDX   #$FF         | /home/lgb/prog_here/mega65-core-lgb/src/kickstart_debug.a65:179
 AFA7  A0 AB     LDY   #$AB         | /home/lgb/prog_here/mega65-core-lgb/src/kickstart_debug.a65:180
 AFA9  20 1A A3  JSR   $A31A          | /home/lgb/prog_here/mega65-core-lgb/src/kickstart_debug.a65:181
 AFAC  A0 00     LDY   #$00         | /home/lgb/prog_here/mega65-core-lgb/src/kickstart_debug.a65:183
 AFAE  AB 84 D6  LDZ   $D684          | /home/lgb/prog_here/mega65-core-lgb/src/kickstart_debug.a65:184
 AFB1  20 AC A3  JSR   $A3AC          | /home/lgb/prog_here/mega65-core-lgb/src/kickstart_debug.a65:185
 AFB4  AB 83 D6  LDZ   $D683          | /home/lgb/prog_here/mega65-core-lgb/src/kickstart_debug.a65:186
 AFB7  20 AC A3  JSR   $A3AC          | /home/lgb/prog_here/mega65-core-lgb/src/kickstart_debug.a65:187
 AFBA  AB 82 D6  LDZ   $D682          | /home/lgb/prog_here/mega65-core-lgb/src/kickstart_debug.a65:188
 AFBD  20 AC A3  JSR   $A3AC          | /home/lgb/prog_here/mega65-core-lgb/src/kickstart_debug.a65:189
 AFC0  AB 81 D6  LDZ   $D681          | /home/lgb/prog_here/mega65-core-lgb/src/kickstart_debug.a65:190
 AFC3  20 AC A3  JSR   $A3AC          | /home/lgb/prog_here/mega65-core-lgb/src/kickstart_debug.a65:191
 AFC6  60        RTS                  | /home/lgb/prog_here/mega65-core-lgb/src/kickstart_debug.a65:192
 AFC7  A2 1F     LDX   #$1F         | /home/lgb/prog_here/mega65-core-lgb/src/kickstart_debug.a65:202
 AFC9  A0 AB     LDY   #$AB         | /home/lgb/prog_here/mega65-core-lgb/src/kickstart_debug.a65:203
 AFCB  20 1A A3  JSR   $A31A          | /home/lgb/prog_here/mega65-core-lgb/src/kickstart_debug.a65:204
 AFCE  A2 2B     LDX   #$2B         | /home/lgb/prog_here/mega65-core-lgb/src/kickstart_debug.a65:206
 AFD0  A0 AB     LDY   #$AB         | /home/lgb/prog_here/mega65-core-lgb/src/kickstart_debug.a65:207
 AFD2  20 1A A3  JSR   $A31A          | /home/lgb/prog_here/mega65-core-lgb/src/kickstart_debug.a65:208
 AFD5  A0 00     LDY   #$00         | /home/lgb/prog_here/mega65-core-lgb/src/kickstart_debug.a65:210
 AFD7  A3 00     LDZ   #$00         | /home/lgb/prog_here/mega65-core-lgb/src/kickstart_debug.a65:211
 AFD9  20 AC A3  JSR   $A3AC          | /home/lgb/prog_here/mega65-core-lgb/src/kickstart_debug.a65:212
 AFDC  A0 00     LDY   #$00         | /home/lgb/prog_here/mega65-core-lgb/src/kickstart_debug.a65:213
 AFDE  AB 00 BB  LDZ   $BB00          | /home/lgb/prog_here/mega65-core-lgb/src/kickstart_debug.a65:214
 AFE1  20 AC A3  JSR   $A3AC          | /home/lgb/prog_here/mega65-core-lgb/src/kickstart_debug.a65:215
 AFE4  AB 01 BB  LDZ   $BB01          | /home/lgb/prog_here/mega65-core-lgb/src/kickstart_debug.a65:216
 AFE7  20 AC A3  JSR   $A3AC          | /home/lgb/prog_here/mega65-core-lgb/src/kickstart_debug.a65:217
 AFEA  AB 02 BB  LDZ   $BB02          | /home/lgb/prog_here/mega65-core-lgb/src/kickstart_debug.a65:218
 AFED  20 AC A3  JSR   $A3AC          | /home/lgb/prog_here/mega65-core-lgb/src/kickstart_debug.a65:219
 AFF0  AB 03 BB  LDZ   $BB03          | /home/lgb/prog_here/mega65-core-lgb/src/kickstart_debug.a65:220
 AFF3  20 AC A3  JSR   $A3AC          | /home/lgb/prog_here/mega65-core-lgb/src/kickstart_debug.a65:221
 AFF6  AB 04 BB  LDZ   $BB04          | /home/lgb/prog_here/mega65-core-lgb/src/kickstart_debug.a65:222
 AFF9  20 AC A3  JSR   $A3AC          | /home/lgb/prog_here/mega65-core-lgb/src/kickstart_debug.a65:223
 AFFC  AB 05 BB  LDZ   $BB05          | /home/lgb/prog_here/mega65-core-lgb/src/kickstart_debug.a65:224
 AFFF  20 AC A3  JSR   $A3AC          | /home/lgb/prog_here/mega65-core-lgb/src/kickstart_debug.a65:225
 B002  AB 06 BB  LDZ   $BB06          | /home/lgb/prog_here/mega65-core-lgb/src/kickstart_debug.a65:226
 B005  20 AC A3  JSR   $A3AC          | /home/lgb/prog_here/mega65-core-lgb/src/kickstart_debug.a65:227
 B008  AB 07 BB  LDZ   $BB07          | /home/lgb/prog_here/mega65-core-lgb/src/kickstart_debug.a65:228
 B00B  20 AC A3  JSR   $A3AC          | /home/lgb/prog_here/mega65-core-lgb/src/kickstart_debug.a65:229
 B00E  A2 2B     LDX   #$2B         | /home/lgb/prog_here/mega65-core-lgb/src/kickstart_debug.a65:231
 B010  A0 AB     LDY   #$AB         | /home/lgb/prog_here/mega65-core-lgb/src/kickstart_debug.a65:232
 B012  20 1A A3  JSR   $A31A          | /home/lgb/prog_here/mega65-core-lgb/src/kickstart_debug.a65:233
 B015  A0 00     LDY   #$00         | /home/lgb/prog_here/mega65-core-lgb/src/kickstart_debug.a65:235
 B017  A3 08     LDZ   #$08         | /home/lgb/prog_here/mega65-core-lgb/src/kickstart_debug.a65:236
 B019  20 AC A3  JSR   $A3AC          | /home/lgb/prog_here/mega65-core-lgb/src/kickstart_debug.a65:237
 B01C  A0 00     LDY   #$00         | /home/lgb/prog_here/mega65-core-lgb/src/kickstart_debug.a65:238
 B01E  AB 08 BB  LDZ   $BB08          | /home/lgb/prog_here/mega65-core-lgb/src/kickstart_debug.a65:239
 B021  20 AC A3  JSR   $A3AC          | /home/lgb/prog_here/mega65-core-lgb/src/kickstart_debug.a65:240
 B024  AB 09 BB  LDZ   $BB09          | /home/lgb/prog_here/mega65-core-lgb/src/kickstart_debug.a65:241
 B027  20 AC A3  JSR   $A3AC          | /home/lgb/prog_here/mega65-core-lgb/src/kickstart_debug.a65:242
 B02A  AB 0A BB  LDZ   $BB0A          | /home/lgb/prog_here/mega65-core-lgb/src/kickstart_debug.a65:243
 B02D  20 AC A3  JSR   $A3AC          | /home/lgb/prog_here/mega65-core-lgb/src/kickstart_debug.a65:244
 B030  AB 0B BB  LDZ   $BB0B          | /home/lgb/prog_here/mega65-core-lgb/src/kickstart_debug.a65:245
 B033  20 AC A3  JSR   $A3AC          | /home/lgb/prog_here/mega65-core-lgb/src/kickstart_debug.a65:246
 B036  AB 0C BB  LDZ   $BB0C          | /home/lgb/prog_here/mega65-core-lgb/src/kickstart_debug.a65:247
 B039  20 AC A3  JSR   $A3AC          | /home/lgb/prog_here/mega65-core-lgb/src/kickstart_debug.a65:248
 B03C  AB 0D BB  LDZ   $BB0D          | /home/lgb/prog_here/mega65-core-lgb/src/kickstart_debug.a65:249
 B03F  20 AC A3  JSR   $A3AC          | /home/lgb/prog_here/mega65-core-lgb/src/kickstart_debug.a65:250
 B042  AB 0E BB  LDZ   $BB0E          | /home/lgb/prog_here/mega65-core-lgb/src/kickstart_debug.a65:251
 B045  20 AC A3  JSR   $A3AC          | /home/lgb/prog_here/mega65-core-lgb/src/kickstart_debug.a65:252
 B048  AB 0F BB  LDZ   $BB0F          | /home/lgb/prog_here/mega65-core-lgb/src/kickstart_debug.a65:253
 B04B  20 AC A3  JSR   $A3AC          | /home/lgb/prog_here/mega65-core-lgb/src/kickstart_debug.a65:254
 B04E  A2 2B     LDX   #$2B         | /home/lgb/prog_here/mega65-core-lgb/src/kickstart_debug.a65:256
 B050  A0 AB     LDY   #$AB         | /home/lgb/prog_here/mega65-core-lgb/src/kickstart_debug.a65:257
 B052  20 1A A3  JSR   $A31A          | /home/lgb/prog_here/mega65-core-lgb/src/kickstart_debug.a65:258
 B055  A0 00     LDY   #$00         | /home/lgb/prog_here/mega65-core-lgb/src/kickstart_debug.a65:260
 B057  A3 10     LDZ   #$10         | /home/lgb/prog_here/mega65-core-lgb/src/kickstart_debug.a65:261
 B059  20 AC A3  JSR   $A3AC          | /home/lgb/prog_here/mega65-core-lgb/src/kickstart_debug.a65:262
 B05C  A0 00     LDY   #$00         | /home/lgb/prog_here/mega65-core-lgb/src/kickstart_debug.a65:263
 B05E  AB 10 BB  LDZ   $BB10          | /home/lgb/prog_here/mega65-core-lgb/src/kickstart_debug.a65:264
 B061  20 AC A3  JSR   $A3AC          | /home/lgb/prog_here/mega65-core-lgb/src/kickstart_debug.a65:265
 B064  AB 11 BB  LDZ   $BB11          | /home/lgb/prog_here/mega65-core-lgb/src/kickstart_debug.a65:266
 B067  20 AC A3  JSR   $A3AC          | /home/lgb/prog_here/mega65-core-lgb/src/kickstart_debug.a65:267
 B06A  AB 12 BB  LDZ   $BB12          | /home/lgb/prog_here/mega65-core-lgb/src/kickstart_debug.a65:268
 B06D  20 AC A3  JSR   $A3AC          | /home/lgb/prog_here/mega65-core-lgb/src/kickstart_debug.a65:269
 B070  AB 13 BB  LDZ   $BB13          | /home/lgb/prog_here/mega65-core-lgb/src/kickstart_debug.a65:270
 B073  20 AC A3  JSR   $A3AC          | /home/lgb/prog_here/mega65-core-lgb/src/kickstart_debug.a65:271
 B076  AB 14 BB  LDZ   $BB14          | /home/lgb/prog_here/mega65-core-lgb/src/kickstart_debug.a65:272
 B079  20 AC A3  JSR   $A3AC          | /home/lgb/prog_here/mega65-core-lgb/src/kickstart_debug.a65:273
 B07C  AB 15 BB  LDZ   $BB15          | /home/lgb/prog_here/mega65-core-lgb/src/kickstart_debug.a65:274
 B07F  20 AC A3  JSR   $A3AC          | /home/lgb/prog_here/mega65-core-lgb/src/kickstart_debug.a65:275
 B082  AB 16 BB  LDZ   $BB16          | /home/lgb/prog_here/mega65-core-lgb/src/kickstart_debug.a65:276
 B085  20 AC A3  JSR   $A3AC          | /home/lgb/prog_here/mega65-core-lgb/src/kickstart_debug.a65:277
 B088  AB 17 BB  LDZ   $BB17          | /home/lgb/prog_here/mega65-core-lgb/src/kickstart_debug.a65:278
 B08B  20 AC A3  JSR   $A3AC          | /home/lgb/prog_here/mega65-core-lgb/src/kickstart_debug.a65:279
 B08E  A2 2B     LDX   #$2B         | /home/lgb/prog_here/mega65-core-lgb/src/kickstart_debug.a65:281
 B090  A0 AB     LDY   #$AB         | /home/lgb/prog_here/mega65-core-lgb/src/kickstart_debug.a65:282
 B092  20 1A A3  JSR   $A31A          | /home/lgb/prog_here/mega65-core-lgb/src/kickstart_debug.a65:283
 B095  A0 00     LDY   #$00         | /home/lgb/prog_here/mega65-core-lgb/src/kickstart_debug.a65:285
 B097  A3 18     LDZ   #$18         | /home/lgb/prog_here/mega65-core-lgb/src/kickstart_debug.a65:286
 B099  20 AC A3  JSR   $A3AC          | /home/lgb/prog_here/mega65-core-lgb/src/kickstart_debug.a65:287
 B09C  A0 00     LDY   #$00         | /home/lgb/prog_here/mega65-core-lgb/src/kickstart_debug.a65:288
 B09E  AB 18 BB  LDZ   $BB18          | /home/lgb/prog_here/mega65-core-lgb/src/kickstart_debug.a65:289
 B0A1  20 AC A3  JSR   $A3AC          | /home/lgb/prog_here/mega65-core-lgb/src/kickstart_debug.a65:290
 B0A4  AB 19 BB  LDZ   $BB19          | /home/lgb/prog_here/mega65-core-lgb/src/kickstart_debug.a65:291
 B0A7  20 AC A3  JSR   $A3AC          | /home/lgb/prog_here/mega65-core-lgb/src/kickstart_debug.a65:292
 B0AA  AB 1A BB  LDZ   $BB1A          | /home/lgb/prog_here/mega65-core-lgb/src/kickstart_debug.a65:293
 B0AD  20 AC A3  JSR   $A3AC          | /home/lgb/prog_here/mega65-core-lgb/src/kickstart_debug.a65:294
 B0B0  AB 1B BB  LDZ   $BB1B          | /home/lgb/prog_here/mega65-core-lgb/src/kickstart_debug.a65:295
 B0B3  20 AC A3  JSR   $A3AC          | /home/lgb/prog_here/mega65-core-lgb/src/kickstart_debug.a65:296
 B0B6  AB 1C BB  LDZ   $BB1C          | /home/lgb/prog_here/mega65-core-lgb/src/kickstart_debug.a65:297
 B0B9  20 AC A3  JSR   $A3AC          | /home/lgb/prog_here/mega65-core-lgb/src/kickstart_debug.a65:298
 B0BC  AB 1D BB  LDZ   $BB1D          | /home/lgb/prog_here/mega65-core-lgb/src/kickstart_debug.a65:299
 B0BF  20 AC A3  JSR   $A3AC          | /home/lgb/prog_here/mega65-core-lgb/src/kickstart_debug.a65:300
 B0C2  AB 1E BB  LDZ   $BB1E          | /home/lgb/prog_here/mega65-core-lgb/src/kickstart_debug.a65:301
 B0C5  20 AC A3  JSR   $A3AC          | /home/lgb/prog_here/mega65-core-lgb/src/kickstart_debug.a65:302
 B0C8  AB 1F BB  LDZ   $BB1F          | /home/lgb/prog_here/mega65-core-lgb/src/kickstart_debug.a65:303
 B0CB  20 AC A3  JSR   $A3AC          | /home/lgb/prog_here/mega65-core-lgb/src/kickstart_debug.a65:304
 B0CE  60        RTS                  | /home/lgb/prog_here/mega65-core-lgb/src/kickstart_debug.a65:306
 B0CF  20 4F A6  JSR   $A64F          | /home/lgb/prog_here/mega65-core-lgb/src/kickstart_debug.a65:314
 B0D2  00 64 6F 73 5F 64 69 73 6B 5F 74 61 62 6C 65 00  |.dos_disk_table.|
 B0E2  AE 00 BB  LDX   $BB00          | /home/lgb/prog_here/mega65-core-lgb/src/kickstart_debug.a65:318
 B0E5  20 3A A7  JSR   $A73A          | /home/lgb/prog_here/mega65-core-lgb/src/kickstart_debug.a65:319
 B0E8  8E 47 B1  STX   $B147          | /home/lgb/prog_here/mega65-core-lgb/src/kickstart_debug.a65:320
 B0EB  8C 46 B1  STY   $B146          | /home/lgb/prog_here/mega65-core-lgb/src/kickstart_debug.a65:321
 B0EE  AE 01 BB  LDX   $BB01          | /home/lgb/prog_here/mega65-core-lgb/src/kickstart_debug.a65:322
 B0F1  20 3A A7  JSR   $A73A          | /home/lgb/prog_here/mega65-core-lgb/src/kickstart_debug.a65:323
 B0F4  8E 4A B1  STX   $B14A          | /home/lgb/prog_here/mega65-core-lgb/src/kickstart_debug.a65:324
 B0F7  8C 49 B1  STY   $B149          | /home/lgb/prog_here/mega65-core-lgb/src/kickstart_debug.a65:325
 B0FA  AE 02 BB  LDX   $BB02          | /home/lgb/prog_here/mega65-core-lgb/src/kickstart_debug.a65:326
 B0FD  20 3A A7  JSR   $A73A          | /home/lgb/prog_here/mega65-core-lgb/src/kickstart_debug.a65:327
 B100  8E 4D B1  STX   $B14D          | /home/lgb/prog_here/mega65-core-lgb/src/kickstart_debug.a65:328
 B103  8C 4C B1  STY   $B14C          | /home/lgb/prog_here/mega65-core-lgb/src/kickstart_debug.a65:329
 B106  AE 03 BB  LDX   $BB03          | /home/lgb/prog_here/mega65-core-lgb/src/kickstart_debug.a65:330
 B109  20 3A A7  JSR   $A73A          | /home/lgb/prog_here/mega65-core-lgb/src/kickstart_debug.a65:331
 B10C  8E 50 B1  STX   $B150          | /home/lgb/prog_here/mega65-core-lgb/src/kickstart_debug.a65:332
 B10F  8C 4F B1  STY   $B14F          | /home/lgb/prog_here/mega65-core-lgb/src/kickstart_debug.a65:333
 B112  AE 04 BB  LDX   $BB04          | /home/lgb/prog_here/mega65-core-lgb/src/kickstart_debug.a65:334
 B115  20 3A A7  JSR   $A73A          | /home/lgb/prog_here/mega65-core-lgb/src/kickstart_debug.a65:335
 B118  8E 53 B1  STX   $B153          | /home/lgb/prog_here/mega65-core-lgb/src/kickstart_debug.a65:336
 B11B  8C 52 B1  STY   $B152          | /home/lgb/prog_here/mega65-core-lgb/src/kickstart_debug.a65:337
 B11E  AE 05 BB  LDX   $BB05          | /home/lgb/prog_here/mega65-core-lgb/src/kickstart_debug.a65:338
 B121  20 3A A7  JSR   $A73A          | /home/lgb/prog_here/mega65-core-lgb/src/kickstart_debug.a65:339
 B124  8E 56 B1  STX   $B156          | /home/lgb/prog_here/mega65-core-lgb/src/kickstart_debug.a65:340
 B127  8C 55 B1  STY   $B155          | /home/lgb/prog_here/mega65-core-lgb/src/kickstart_debug.a65:341
 B12A  AE 06 BB  LDX   $BB06          | /home/lgb/prog_here/mega65-core-lgb/src/kickstart_debug.a65:342
 B12D  20 3A A7  JSR   $A73A          | /home/lgb/prog_here/mega65-core-lgb/src/kickstart_debug.a65:343
 B130  8E 59 B1  STX   $B159          | /home/lgb/prog_here/mega65-core-lgb/src/kickstart_debug.a65:344
 B133  8C 58 B1  STY   $B158          | /home/lgb/prog_here/mega65-core-lgb/src/kickstart_debug.a65:345
 B136  AE 07 BB  LDX   $BB07          | /home/lgb/prog_here/mega65-core-lgb/src/kickstart_debug.a65:346
 B139  20 3A A7  JSR   $A73A          | /home/lgb/prog_here/mega65-core-lgb/src/kickstart_debug.a65:347
 B13C  8E 5C B1  STX   $B15C          | /home/lgb/prog_here/mega65-core-lgb/src/kickstart_debug.a65:348
 B13F  8C 5B B1  STY   $B15B          | /home/lgb/prog_here/mega65-core-lgb/src/kickstart_debug.a65:349
 B142  20 4F A6  JSR   $A64F          | /home/lgb/prog_here/mega65-core-lgb/src/kickstart_debug.a65:351
 B145  00 78 78 2C 78 78 2C 78 78 2C 78 78 2C 78 78 2C  |.xx,xx,xx,xx,xx,|
 B155  78 78 2C 78 78 2C 78 78 00                       |xx,xx,xx.       |
 B15E  AE 08 BB  LDX   $BB08          | /home/lgb/prog_here/mega65-core-lgb/src/kickstart_debug.a65:363
 B161  20 3A A7  JSR   $A73A          | /home/lgb/prog_here/mega65-core-lgb/src/kickstart_debug.a65:364
 B164  8E C3 B1  STX   $B1C3          | /home/lgb/prog_here/mega65-core-lgb/src/kickstart_debug.a65:365
 B167  8C C2 B1  STY   $B1C2          | /home/lgb/prog_here/mega65-core-lgb/src/kickstart_debug.a65:366
 B16A  AE 09 BB  LDX   $BB09          | /home/lgb/prog_here/mega65-core-lgb/src/kickstart_debug.a65:367
 B16D  20 3A A7  JSR   $A73A          | /home/lgb/prog_here/mega65-core-lgb/src/kickstart_debug.a65:368
 B170  8E C6 B1  STX   $B1C6          | /home/lgb/prog_here/mega65-core-lgb/src/kickstart_debug.a65:369
 B173  8C C5 B1  STY   $B1C5          | /home/lgb/prog_here/mega65-core-lgb/src/kickstart_debug.a65:370
 B176  AE 0A BB  LDX   $BB0A          | /home/lgb/prog_here/mega65-core-lgb/src/kickstart_debug.a65:371
 B179  20 3A A7  JSR   $A73A          | /home/lgb/prog_here/mega65-core-lgb/src/kickstart_debug.a65:372
 B17C  8E C9 B1  STX   $B1C9          | /home/lgb/prog_here/mega65-core-lgb/src/kickstart_debug.a65:373
 B17F  8C C8 B1  STY   $B1C8          | /home/lgb/prog_here/mega65-core-lgb/src/kickstart_debug.a65:374
 B182  AE 0B BB  LDX   $BB0B          | /home/lgb/prog_here/mega65-core-lgb/src/kickstart_debug.a65:375
 B185  20 3A A7  JSR   $A73A          | /home/lgb/prog_here/mega65-core-lgb/src/kickstart_debug.a65:376
 B188  8E CC B1  STX   $B1CC          | /home/lgb/prog_here/mega65-core-lgb/src/kickstart_debug.a65:377
 B18B  8C CB B1  STY   $B1CB          | /home/lgb/prog_here/mega65-core-lgb/src/kickstart_debug.a65:378
 B18E  AE 0C BB  LDX   $BB0C          | /home/lgb/prog_here/mega65-core-lgb/src/kickstart_debug.a65:379
 B191  20 3A A7  JSR   $A73A          | /home/lgb/prog_here/mega65-core-lgb/src/kickstart_debug.a65:380
 B194  8E CF B1  STX   $B1CF          | /home/lgb/prog_here/mega65-core-lgb/src/kickstart_debug.a65:381
 B197  8C CE B1  STY   $B1CE          | /home/lgb/prog_here/mega65-core-lgb/src/kickstart_debug.a65:382
 B19A  AE 0D BB  LDX   $BB0D          | /home/lgb/prog_here/mega65-core-lgb/src/kickstart_debug.a65:383
 B19D  20 3A A7  JSR   $A73A          | /home/lgb/prog_here/mega65-core-lgb/src/kickstart_debug.a65:384
 B1A0  8E D2 B1  STX   $B1D2          | /home/lgb/prog_here/mega65-core-lgb/src/kickstart_debug.a65:385
 B1A3  8C D1 B1  STY   $B1D1          | /home/lgb/prog_here/mega65-core-lgb/src/kickstart_debug.a65:386
 B1A6  AE 0E BB  LDX   $BB0E          | /home/lgb/prog_here/mega65-core-lgb/src/kickstart_debug.a65:387
 B1A9  20 3A A7  JSR   $A73A          | /home/lgb/prog_here/mega65-core-lgb/src/kickstart_debug.a65:388
 B1AC  8E D5 B1  STX   $B1D5          | /home/lgb/prog_here/mega65-core-lgb/src/kickstart_debug.a65:389
 B1AF  8C D4 B1  STY   $B1D4          | /home/lgb/prog_here/mega65-core-lgb/src/kickstart_debug.a65:390
 B1B2  AE 0F BB  LDX   $BB0F          | /home/lgb/prog_here/mega65-core-lgb/src/kickstart_debug.a65:391
 B1B5  20 3A A7  JSR   $A73A          | /home/lgb/prog_here/mega65-core-lgb/src/kickstart_debug.a65:392
 B1B8  8E D8 B1  STX   $B1D8          | /home/lgb/prog_here/mega65-core-lgb/src/kickstart_debug.a65:393
 B1BB  8C D7 B1  STY   $B1D7          | /home/lgb/prog_here/mega65-core-lgb/src/kickstart_debug.a65:394
 B1BE  20 4F A6  JSR   $A64F          | /home/lgb/prog_here/mega65-core-lgb/src/kickstart_debug.a65:396
 B1C1  00 78 78 2C 78 78 2C 78 78 2C 78 78 2C 78 78 2C  |.xx,xx,xx,xx,xx,|
 B1D1  78 78 2C 78 78 2C 78 78 00                       |xx,xx,xx.       |
 B1DA  AE 10 BB  LDX   $BB10          | /home/lgb/prog_here/mega65-core-lgb/src/kickstart_debug.a65:408
 B1DD  20 3A A7  JSR   $A73A          | /home/lgb/prog_here/mega65-core-lgb/src/kickstart_debug.a65:409
 B1E0  8E 3F B2  STX   $B23F          | /home/lgb/prog_here/mega65-core-lgb/src/kickstart_debug.a65:410
 B1E3  8C 3E B2  STY   $B23E          | /home/lgb/prog_here/mega65-core-lgb/src/kickstart_debug.a65:411
 B1E6  AE 11 BB  LDX   $BB11          | /home/lgb/prog_here/mega65-core-lgb/src/kickstart_debug.a65:412
 B1E9  20 3A A7  JSR   $A73A          | /home/lgb/prog_here/mega65-core-lgb/src/kickstart_debug.a65:413
 B1EC  8E 42 B2  STX   $B242          | /home/lgb/prog_here/mega65-core-lgb/src/kickstart_debug.a65:414
 B1EF  8C 41 B2  STY   $B241          | /home/lgb/prog_here/mega65-core-lgb/src/kickstart_debug.a65:415
 B1F2  AE 12 BB  LDX   $BB12          | /home/lgb/prog_here/mega65-core-lgb/src/kickstart_debug.a65:416
 B1F5  20 3A A7  JSR   $A73A          | /home/lgb/prog_here/mega65-core-lgb/src/kickstart_debug.a65:417
 B1F8  8E 45 B2  STX   $B245          | /home/lgb/prog_here/mega65-core-lgb/src/kickstart_debug.a65:418
 B1FB  8C 44 B2  STY   $B244          | /home/lgb/prog_here/mega65-core-lgb/src/kickstart_debug.a65:419
 B1FE  AE 13 BB  LDX   $BB13          | /home/lgb/prog_here/mega65-core-lgb/src/kickstart_debug.a65:420
 B201  20 3A A7  JSR   $A73A          | /home/lgb/prog_here/mega65-core-lgb/src/kickstart_debug.a65:421
 B204  8E 48 B2  STX   $B248          | /home/lgb/prog_here/mega65-core-lgb/src/kickstart_debug.a65:422
 B207  8C 47 B2  STY   $B247          | /home/lgb/prog_here/mega65-core-lgb/src/kickstart_debug.a65:423
 B20A  AE 14 BB  LDX   $BB14          | /home/lgb/prog_here/mega65-core-lgb/src/kickstart_debug.a65:424
 B20D  20 3A A7  JSR   $A73A          | /home/lgb/prog_here/mega65-core-lgb/src/kickstart_debug.a65:425
 B210  8E 4B B2  STX   $B24B          | /home/lgb/prog_here/mega65-core-lgb/src/kickstart_debug.a65:426
 B213  8C 4A B2  STY   $B24A          | /home/lgb/prog_here/mega65-core-lgb/src/kickstart_debug.a65:427
 B216  AE 15 BB  LDX   $BB15          | /home/lgb/prog_here/mega65-core-lgb/src/kickstart_debug.a65:428
 B219  20 3A A7  JSR   $A73A          | /home/lgb/prog_here/mega65-core-lgb/src/kickstart_debug.a65:429
 B21C  8E 4E B2  STX   $B24E          | /home/lgb/prog_here/mega65-core-lgb/src/kickstart_debug.a65:430
 B21F  8C 4D B2  STY   $B24D          | /home/lgb/prog_here/mega65-core-lgb/src/kickstart_debug.a65:431
 B222  AE 16 BB  LDX   $BB16          | /home/lgb/prog_here/mega65-core-lgb/src/kickstart_debug.a65:432
 B225  20 3A A7  JSR   $A73A          | /home/lgb/prog_here/mega65-core-lgb/src/kickstart_debug.a65:433
 B228  8E 51 B2  STX   $B251          | /home/lgb/prog_here/mega65-core-lgb/src/kickstart_debug.a65:434
 B22B  8C 50 B2  STY   $B250          | /home/lgb/prog_here/mega65-core-lgb/src/kickstart_debug.a65:435
 B22E  AE 17 BB  LDX   $BB17          | /home/lgb/prog_here/mega65-core-lgb/src/kickstart_debug.a65:436
 B231  20 3A A7  JSR   $A73A          | /home/lgb/prog_here/mega65-core-lgb/src/kickstart_debug.a65:437
 B234  8E 54 B2  STX   $B254          | /home/lgb/prog_here/mega65-core-lgb/src/kickstart_debug.a65:438
 B237  8C 53 B2  STY   $B253          | /home/lgb/prog_here/mega65-core-lgb/src/kickstart_debug.a65:439
 B23A  20 4F A6  JSR   $A64F          | /home/lgb/prog_here/mega65-core-lgb/src/kickstart_debug.a65:441
 B23D  00 78 78 2C 78 78 2C 78 78 2C 78 78 2C 78 78 2C  |.xx,xx,xx,xx,xx,|
 B24D  78 78 2C 78 78 2C 78 78 00                       |xx,xx,xx.       |
 B256  AE 18 BB  LDX   $BB18          | /home/lgb/prog_here/mega65-core-lgb/src/kickstart_debug.a65:453
 B259  20 3A A7  JSR   $A73A          | /home/lgb/prog_here/mega65-core-lgb/src/kickstart_debug.a65:454
 B25C  8E BB B2  STX   $B2BB          | /home/lgb/prog_here/mega65-core-lgb/src/kickstart_debug.a65:455
 B25F  8C BA B2  STY   $B2BA          | /home/lgb/prog_here/mega65-core-lgb/src/kickstart_debug.a65:456
 B262  AE 19 BB  LDX   $BB19          | /home/lgb/prog_here/mega65-core-lgb/src/kickstart_debug.a65:457
 B265  20 3A A7  JSR   $A73A          | /home/lgb/prog_here/mega65-core-lgb/src/kickstart_debug.a65:458
 B268  8E BE B2  STX   $B2BE          | /home/lgb/prog_here/mega65-core-lgb/src/kickstart_debug.a65:459
 B26B  8C BD B2  STY   $B2BD          | /home/lgb/prog_here/mega65-core-lgb/src/kickstart_debug.a65:460
 B26E  AE 1A BB  LDX   $BB1A          | /home/lgb/prog_here/mega65-core-lgb/src/kickstart_debug.a65:461
 B271  20 3A A7  JSR   $A73A          | /home/lgb/prog_here/mega65-core-lgb/src/kickstart_debug.a65:462
 B274  8E C1 B2  STX   $B2C1          | /home/lgb/prog_here/mega65-core-lgb/src/kickstart_debug.a65:463
 B277  8C C0 B2  STY   $B2C0          | /home/lgb/prog_here/mega65-core-lgb/src/kickstart_debug.a65:464
 B27A  AE 1B BB  LDX   $BB1B          | /home/lgb/prog_here/mega65-core-lgb/src/kickstart_debug.a65:465
 B27D  20 3A A7  JSR   $A73A          | /home/lgb/prog_here/mega65-core-lgb/src/kickstart_debug.a65:466
 B280  8E C4 B2  STX   $B2C4          | /home/lgb/prog_here/mega65-core-lgb/src/kickstart_debug.a65:467
 B283  8C C3 B2  STY   $B2C3          | /home/lgb/prog_here/mega65-core-lgb/src/kickstart_debug.a65:468
 B286  AE 1C BB  LDX   $BB1C          | /home/lgb/prog_here/mega65-core-lgb/src/kickstart_debug.a65:469
 B289  20 3A A7  JSR   $A73A          | /home/lgb/prog_here/mega65-core-lgb/src/kickstart_debug.a65:470
 B28C  8E C7 B2  STX   $B2C7          | /home/lgb/prog_here/mega65-core-lgb/src/kickstart_debug.a65:471
 B28F  8C C6 B2  STY   $B2C6          | /home/lgb/prog_here/mega65-core-lgb/src/kickstart_debug.a65:472
 B292  AE 1D BB  LDX   $BB1D          | /home/lgb/prog_here/mega65-core-lgb/src/kickstart_debug.a65:473
 B295  20 3A A7  JSR   $A73A          | /home/lgb/prog_here/mega65-core-lgb/src/kickstart_debug.a65:474
 B298  8E CA B2  STX   $B2CA          | /home/lgb/prog_here/mega65-core-lgb/src/kickstart_debug.a65:475
 B29B  8C C9 B2  STY   $B2C9          | /home/lgb/prog_here/mega65-core-lgb/src/kickstart_debug.a65:476
 B29E  AE 1E BB  LDX   $BB1E          | /home/lgb/prog_here/mega65-core-lgb/src/kickstart_debug.a65:477
 B2A1  20 3A A7  JSR   $A73A          | /home/lgb/prog_here/mega65-core-lgb/src/kickstart_debug.a65:478
 B2A4  8E CD B2  STX   $B2CD          | /home/lgb/prog_here/mega65-core-lgb/src/kickstart_debug.a65:479
 B2A7  8C CC B2  STY   $B2CC          | /home/lgb/prog_here/mega65-core-lgb/src/kickstart_debug.a65:480
 B2AA  AE 1F BB  LDX   $BB1F          | /home/lgb/prog_here/mega65-core-lgb/src/kickstart_debug.a65:481
 B2AD  20 3A A7  JSR   $A73A          | /home/lgb/prog_here/mega65-core-lgb/src/kickstart_debug.a65:482
 B2B0  8E D0 B2  STX   $B2D0          | /home/lgb/prog_here/mega65-core-lgb/src/kickstart_debug.a65:483
 B2B3  8C CF B2  STY   $B2CF          | /home/lgb/prog_here/mega65-core-lgb/src/kickstart_debug.a65:484
 B2B6  20 4F A6  JSR   $A64F          | /home/lgb/prog_here/mega65-core-lgb/src/kickstart_debug.a65:486
 B2B9  00 78 78 2C 78 78 2C 78 78 2C 78 78 2C 78 78 2C  |.xx,xx,xx,xx,xx,|
 B2C9  78 78 2C 78 78 2C 78 78 00                       |xx,xx,xx.       |
 B2D2  60        RTS                  | /home/lgb/prog_here/mega65-core-lgb/src/kickstart_debug.a65:498
 B2D3  AD 01 BC  LDA   $BC01          | /home/lgb/prog_here/mega65-core-lgb/src/kickstart_debug.a65:504
 B2D6  AA        TAX                  | /home/lgb/prog_here/mega65-core-lgb/src/kickstart_debug.a65:508
 B2D7  20 3A A7  JSR   $A73A          | /home/lgb/prog_here/mega65-core-lgb/src/kickstart_debug.a65:509
 B2DA  8C F5 B2  STY   $B2F5          | /home/lgb/prog_here/mega65-core-lgb/src/kickstart_debug.a65:510
 B2DD  8E F6 B2  STX   $B2F6          | /home/lgb/prog_here/mega65-core-lgb/src/kickstart_debug.a65:511
 B2E0  20 4F A6  JSR   $A64F          | /home/lgb/prog_here/mega65-core-lgb/src/kickstart_debug.a65:512
 B2E3  00 64 6F 73 5F 64 69 73 6B 5F 63 6F 75 6E 74 20  |.dos_disk_count |
 B2F3  3D 20 78 78 00                                   |= xx.           |
 B2F8  60        RTS                  | /home/lgb/prog_here/mega65-core-lgb/src/kickstart_debug.a65:516
 B2F9  A0 32     LDY   #$32         | /home/lgb/prog_here/mega65-core-lgb/src/kickstart_debug.a65:523
 B2FB  AD 12 D0  LDA   $D012          | /home/lgb/prog_here/mega65-core-lgb/src/kickstart_debug.a65:525
 B2FE  C9 40     CMP   #$40         | /home/lgb/prog_here/mega65-core-lgb/src/kickstart_debug.a65:526
 B300  D3 F9 FF  BNE   $B2FB          | /home/lgb/prog_here/mega65-core-lgb/src/kickstart_debug.a65:527
 B303  CD 12 D0  CMP   $D012          | /home/lgb/prog_here/mega65-core-lgb/src/kickstart_debug.a65:529
 B306  F3 FB FF  BEQ   $B303          | /home/lgb/prog_here/mega65-core-lgb/src/kickstart_debug.a65:530
 B309  88        DEY                  | /home/lgb/prog_here/mega65-core-lgb/src/kickstart_debug.a65:532
 B30A  D3 EF FF  BNE   $B2FB          | /home/lgb/prog_here/mega65-core-lgb/src/kickstart_debug.a65:533
 B30D  60        RTS                  | /home/lgb/prog_here/mega65-core-lgb/src/kickstart_debug.a65:535
 B30E  00 00 00 00 00 00 00 00 00 00 00 00 00 00 00 00  |................|
 B31E  00 00 00 00 00 00 00 00 00 00 00 00 00 00 00 00  |................|
 B32E  00 00 00 00 00 00 00 00 00 00 00 00 00 00 00 00  |................|
 B33E  00 00 00 00 00 00 00 00 00 00 00 00 00 00 00 00  |................|
 B34E  00 00 00 00 00 00 00 00 00 00 00 00 00 00 00 00  |................|
 B35E  00 00 00 00 00 00 00 00 00 00 00 00 00 00 00 00  |................|
 B36E  00 00 00 00 00 00 00 00 00 00 00 00 00 00 00 00  |................|
 B37E  00 00 00 00 00 00 00 00 00 00 00 00 00 00 00 00  |................|
 B38E  00 00 00 00 00 00 00 00 00 00 00 00 00 00 00 00  |................|
 B39E  00 00 00 00 00 00 00 00 00 00 00 00 00 00 00 00  |................|
 B3AE  00 00 00 00 00 00 00 00 00 00 00 00 00 00 00 00  |................|
 B3BE  00 00 00 00 00 00 00 00 00 00 00 00 00 00 00 00  |................|
 B3CE  00 00 00 00 00 00 00 00 00 00 00 00 00 00 00 00  |................|
 B3DE  00 00 00 00 00 00 00 00 00 00 00 00 00 00 00 00  |................|
 B3EE  00 00 00 00 00 00 00 00 00 00 00 00 00 00 00 00  |................|
 B3FE  00 00 00 00 00 00 00 00 00 00 00 00 00 00 00 00  |................|
 B40E  00 00 00 00 00 00 00 00 00 00 00 00 00 00 00 00  |................|
 B41E  00 00 00 00 00 00 00 00 00 00 00 00 00 00 00 00  |................|
 B42E  00 00 00 00 00 00 00 00 00 00 00 00 00 00 00 00  |................|
 B43E  00 00 00 00 00 00 00 00 00 00 00 00 00 00 00 00  |................|
 B44E  00 00 00 00 00 00 00 00 00 00 00 00 00 00 00 00  |................|
 B45E  00 00 00 00 00 00 00 00 00 00 00 00 00 00 00 00  |................|
 B46E  00 00 00 00 00 00 00 00 00 00 00 00 00 00 00 00  |................|
 B47E  00 00 00 00 00 00 00 00 00 00 00 00 00 00 00 00  |................|
 B48E  00 00 00 00 00 00 00 00 00 00 00 00 00 00 00 00  |................|
 B49E  00 00 00 00 00 00 00 00 00 00 00 00 00 00 00 00  |................|
 B4AE  00 00 00 00 00 00 00 00 00 00 00 00 00 00 00 00  |................|
 B4BE  00 00 00 00 00 00 00 00 00 00 00 00 00 00 00 00  |................|
 B4CE  00 00 00 00 00 00 00 00 00 00 00 00 00 00 00 00  |................|
 B4DE  00 00 00 00 00 00 00 00 00 00 00 00 00 00 00 00  |................|
 B4EE  00 00 00 00 00 00 00 00 00 00 00 00 00 00 00 00  |................|
 B4FE  00 00 00 00 00 00 00 00 00 00 00 00 00 00 00 00  |................|
 B50E  00 00 00 00 00 00 00 00 00 00 00 00 00 00 00 00  |................|
 B51E  00 00 00 00 00 00 00 00 00 00 00 00 00 00 00 00  |................|
 B52E  00 00 00 00 00 00 00 00 00 00 00 00 00 00 00 00  |................|
 B53E  00 00 00 00 00 00 00 00 00 00 00 00 00 00 00 00  |................|
 B54E  00 00 00 00 00 00 00 00 00 00 00 00 00 00 00 00  |................|
 B55E  00 00 00 00 00 00 00 00 00 00 00 00 00 00 00 00  |................|
 B56E  00 00 00 00 00 00 00 00 00 00 00 00 00 00 00 00  |................|
 B57E  00 00 00 00 00 00 00 00 00 00 00 00 00 00 00 00  |................|
 B58E  00 00 00 00 00 00 00 00 00 00 00 00 00 00 00 00  |................|
 B59E  00 00 00 00 00 00 00 00 00 00 00 00 00 00 00 00  |................|
 B5AE  00 00 00 00 00 00 00 00 00 00 00 00 00 00 00 00  |................|
 B5BE  00 00 00 00 00 00 00 00 00 00 00 00 00 00 00 00  |................|
 B5CE  00 00 00 00 00 00 00 00 00 00 00 00 00 00 00 00  |................|
 B5DE  00 00 00 00 00 00 00 00 00 00 00 00 00 00 00 00  |................|
 B5EE  00 00 00 00 00 00 00 00 00 00 00 00 00 00 00 00  |................|
 B5FE  00 00 00 00 00 00 00 00 00 00 00 00 00 00 00 00  |................|
 B60E  00 00 00 00 00 00 00 00 00 00 00 00 00 00 00 00  |................|
 B61E  00 00 00 00 00 00 00 00 00 00 00 00 00 00 00 00  |................|
 B62E  00 00 00 00 00 00 00 00 00 00 00 00 00 00 00 00  |................|
 B63E  00 00 00 00 00 00 00 00 00 00 00 00 00 00 00 00  |................|
 B64E  00 00 00 00 00 00 00 00 00 00 00 00 00 00 00 00  |................|
 B65E  00 00 00 00 00 00 00 00 00 00 00 00 00 00 00 00  |................|
 B66E  00 00 00 00 00 00 00 00 00 00 00 00 00 00 00 00  |................|
 B67E  00 00 00 00 00 00 00 00 00 00 00 00 00 00 00 00  |................|
 B68E  00 00 00 00 00 00 00 00 00 00 00 00 00 00 00 00  |................|
 B69E  00 00 00 00 00 00 00 00 00 00 00 00 00 00 00 00  |................|
 B6AE  00 00 00 00 00 00 00 00 00 00 00 00 00 00 00 00  |................|
 B6BE  00 00 00 00 00 00 00 00 00 00 00 00 00 00 00 00  |................|
 B6CE  00 00 00 00 00 00 00 00 00 00 00 00 00 00 00 00  |................|
 B6DE  00 00 00 00 00 00 00 00 00 00 00 00 00 00 00 00  |................|
 B6EE  00 00 00 00 00 00 00 00 00 00 00 00 00 00 00 00  |................|
 B6FE  00 00 00 00 00 00 00 00 00 00 00 00 00 00 00 00  |................|
 B70E  00 00 00 00 00 00 00 00 00 00 00 00 00 00 00 00  |................|
 B71E  00 00 00 00 00 00 00 00 00 00 00 00 00 00 00 00  |................|
 B72E  00 00 00 00 00 00 00 00 00 00 00 00 00 00 00 00  |................|
 B73E  00 00 00 00 00 00 00 00 00 00 00 00 00 00 00 00  |................|
 B74E  00 00 00 00 00 00 00 00 00 00 00 00 00 00 00 00  |................|
 B75E  00 00 00 00 00 00 00 00 00 00 00 00 00 00 00 00  |................|
 B76E  00 00 00 00 00 00 00 00 00 00 00 00 00 00 00 00  |................|
 B77E  00 00 00 00 00 00 00 00 00 00 00 00 00 00 00 00  |................|
 B78E  00 00 00 00 00 00 00 00 00 00 00 00 00 00 00 00  |................|
 B79E  00 00 00 00 00 00 00 00 00 00 00 00 00 00 00 00  |................|
 B7AE  00 00 00 00 00 00 00 00 00 00 00 00 00 00 00 00  |................|
 B7BE  00 00 00 00 00 00 00 00 00 00 00 00 00 00 00 00  |................|
 B7CE  00 00 00 00 00 00 00 00 00 00 00 00 00 00 00 00  |................|
 B7DE  00 00 00 00 00 00 00 00 00 00 00 00 00 00 00 00  |................|
 B7EE  00 00 00 00 00 00 00 00 00 00 00 00 00 00 00 00  |................|
 B7FE  00 00 00 00 00 00 00 00 00 00 00 00 00 00 00 00  |................|
 B80E  00 00 00 00 00 00 00 00 00 00 00 00 00 00 00 00  |................|
 B81E  00 00 00 00 00 00 00 00 00 00 00 00 00 00 00 00  |................|
 B82E  00 00 00 00 00 00 00 00 00 00 00 00 00 00 00 00  |................|
 B83E  00 00 00 00 00 00 00 00 00 00 00 00 00 00 00 00  |................|
 B84E  00 00 00 00 00 00 00 00 00 00 00 00 00 00 00 00  |................|
 B85E  00 00 00 00 00 00 00 00 00 00 00 00 00 00 00 00  |................|
 B86E  00 00 00 00 00 00 00 00 00 00 00 00 00 00 00 00  |................|
 B87E  00 00 00 00 00 00 00 00 00 00 00 00 00 00 00 00  |................|
 B88E  00 00 00 00 00 00 00 00 00 00 00 00 00 00 00 00  |................|
 B89E  00 00 00 00 00 00 00 00 00 00 00 00 00 00 00 00  |................|
 B8AE  00 00 00 00 00 00 00 00 00 00 00 00 00 00 00 00  |................|
 B8BE  00 00 00 00 00 00 00 00 00 00 00 00 00 00 00 00  |................|
 B8CE  00 00 00 00 00 00 00 00 00 00 00 00 00 00 00 00  |................|
 B8DE  00 00 00 00 00 00 00 00 00 00 00 00 00 00 00 00  |................|
 B8EE  00 00 00 00 00 00 00 00 00 00 00 00 00 00 00 00  |................|
 B8FE  00 00 00 00 00 00 00 00 00 00 00 00 00 00 00 00  |................|
 B90E  00 00 00 00 00 00 00 00 00 00 00 00 00 00 00 00  |................|
 B91E  00 00 00 00 00 00 00 00 00 00 00 00 00 00 00 00  |................|
 B92E  00 00 00 00 00 00 00 00 00 00 00 00 00 00 00 00  |................|
 B93E  00 00 00 00 00 00 00 00 00 00 00 00 00 00 00 00  |................|
 B94E  00 00 00 00 00 00 00 00 00 00 00 00 00 00 00 00  |................|
 B95E  00 00 00 00 00 00 00 00 00 00 00 00 00 00 00 00  |................|
 B96E  00 00 00 00 00 00 00 00 00 00 00 00 00 00 00 00  |................|
 B97E  00 00 00 00 00 00 00 00 00 00 00 00 00 00 00 00  |................|
 B98E  00 00 00 00 00 00 00 00 00 00 00 00 00 00 00 00  |................|
 B99E  00 00 00 00 00 00 00 00 00 00 00 00 00 00 00 00  |................|
 B9AE  00 00 00 00 00 00 00 00 00 00 00 00 00 00 00 00  |................|
 B9BE  00 00 00 00 00 00 00 00 00 00 00 00 00 00 00 00  |................|
 B9CE  00 00 00 00 00 00 00 00 00 00 00 00 00 00 00 00  |................|
 B9DE  00 00 00 00 00 00 00 00 00 00 00 00 00 00 00 00  |................|
 B9EE  00 00 00 00 00 00 00 00 00 00 00 00 00 00 00 00  |................|
 B9FE  00 00 00 00 00 00 00 00 00 00 00 00 00 00 00 00  |................|
 BA0E  00 00 00 00 00 00 00 00 00 00 00 00 00 00 00 00  |................|
 BA1E  00 00 00 00 00 00 00 00 00 00 00 00 00 00 00 00  |................|
 BA2E  00 00 00 00 00 00 00 00 00 00 00 00 00 00 00 00  |................|
 BA3E  00 00 00 00 00 00 00 00 00 00 00 00 00 00 00 00  |................|
 BA4E  00 00 00 00 00 00 00 00 00 00 00 00 00 00 00 00  |................|
 BA5E  00 00 00 00 00 00 00 00 00 00 00 00 00 00 00 00  |................|
 BA6E  00 00 00 00 00 00 00 00 00 00 00 00 00 00 00 00  |................|
 BA7E  00 00 00 00 00 00 00 00 00 00 00 00 00 00 00 00  |................|
 BA8E  00 00 00 00 00 00 00 00 00 00 00 00 00 00 00 00  |................|
 BA9E  00 00 00 00 00 00 00 00 00 00 00 00 00 00 00 00  |................|
 BAAE  00 00 00 00 00 00 00 00 00 00 00 00 00 00 00 00  |................|
 BABE  00 00 00 00 00 00 00 00 00 00 00 00 00 00 00 00  |................|
 BACE  00 00 00 00 00 00 00 00 00 00 00 00 00 00 00 00  |................|
 BADE  00 00 00 00 00 00 00 00 00 00 00 00 00 00 00 00  |................|
 BAEE  00 00 00 00 00 00 00 00 00 00 00 00 00 00 00 00  |................|
 BAFE  00 00 00 00 00 00 00 00 00 00 00 00 00 00 00 00  |................|
 BB0E  00 00 00 00 00 00 00 00 00 00 00 00 00 00 00 00  |................|
 BB1E  00 00 00 00 00 00 00 00 00 00 00 00 00 00 00 00  |................|
 BB2E  00 00 00 00 00 00 00 00 00 00 00 00 00 00 00 00  |................|
 BB3E  00 00 00 00 00 00 00 00 00 00 00 00 00 00 00 00  |................|
 BB4E  00 00 00 00 00 00 00 00 00 00 00 00 00 00 00 00  |................|
 BB5E  00 00 00 00 00 00 00 00 00 00 00 00 00 00 00 00  |................|
 BB6E  00 00 00 00 00 00 00 00 00 00 00 00 00 00 00 00  |................|
 BB7E  00 00 00 00 00 00 00 00 00 00 00 00 00 00 00 00  |................|
 BB8E  00 00 00 00 00 00 00 00 00 00 00 00 00 00 00 00  |................|
 BB9E  00 00 00 00 00 00 00 00 00 00 00 00 00 00 00 00  |................|
 BBAE  00 00 00 00 00 00 00 00 00 00 00 00 00 00 00 00  |................|
 BBBE  00 00 00 00 00 00 00 00 00 00 00 00 00 00 00 00  |................|
 BBCE  00 00 00 00 00 00 00 00 00 00 00 00 00 00 00 00  |................|
 BBDE  00 00 00 00 00 00 00 00 00 00 00 00 00 00 00 00  |................|
 BBEE  00 00 00 00 00 00 00 00 00 00 00 00 00 00 00 00  |................|
 BBFE  00 00 00 00 00 00 00 00 00 00 00 00 00 00 00 00  |................|
 BC0E  00 56 65 6E 65 7A 75 61 6C 65 6E 20 63 61 73 61  |.Venezualen casa|
 BC1E  62 61 20 6D 65 6C 6F 6E 20 70 72 6F 64 75 63 74  |ba melon product|
 BC2E  69 6F 6E 20 73 74 61 74 69 73 74 69 63 73 20 28  |ion statistics (|
 BC3E  32 30 31 32 2D 32 30 31 35 29 2E 74 78 74 20 20  |2012-2015).txt  |
 BC4E  00 00 46 49 4C 45 4E 41 4D 45 2E 45 58 54 00 00  |..FILENAME.EXT..|
 BC5E  00 00 00 00 00 00 00 00 00 56 65 6E 65 7A 75 61  |.........Venezua|
 BC6E  6C 65 6E 20 63 61 73 61 62 61 20 6D 65 6C 6F 6E  |len casaba melon|
 BC7E  20 70 72 6F 64 75 63 74 69 6F 6E 20 73 74 61 74  | production stat|
 BC8E  69 73 74 69 63 73 20 28 32 30 30 37 2D 32 30 31  |istics (2007-201|
 BC9E  31 29 2E 74 78 74 20 20 20 20 20 00 00 00 00 00  |1).txt     .....|
 BCAE  00 00 00 00 00 00 FF 00 00 00 00 00 00 00 00 00  |................|
 BCBE  00 00 00 00 00 00 FF 00 00 00 00 00 00 00 00 00  |................|
 BCCE  00 00 00 00 00 00 FF 00 00 00 00 00 00 00 00 00  |................|
 BCDE  00 00 00 00 00 00 FF 00 00 00 00 00 00 00 00 00  |................|
 BCEE  00 00 00 00 00 00 00 00 00 00 00 00 00 00 00 00  |................|
 BCFE  00 00 FF 4F 50 45 52 41 54 49 4E 47 20 53 59 53  |...OPERATING SYS|
 BD0E  54 45 4D 00 00 00 00 00 00 00 00 00 00 00 00 00  |TEM.............|
 BD1E  00 00 00 00 00 00 00 00 00 00 00 00 00 00 00 00  |................|
 BD2E  00 00 00 00 00 00 00 00 00 00 00 00 00 00 00 00  |................|
 BD3E  00 00 00 00 00 00 00 00 00 00 00 00 00 00 00 00  |................|
 BD4E  00 00 00 00 00 00 00 00 00 00 00 00 00 00 00 00  |................|
 BD5E  00 00 00 00 00 00 00 00 00 00 00 00 00 00 00 00  |................|
 BD6E  00 00 00 00 00 00 00 00 00 00 00 00 00 00 00 00  |................|
 BD7E  00 00 00 00 00 00 00 00 00 00 00 00 00 00 00 00  |................|
 BD8E  00 00 00 00 00 00 00 00 00 00 00 00 00 00 00 00  |................|
 BD9E  00 00 00 00 00 00 00 00 00 00 00 00 00 00 00 00  |................|
 BDAE  00 00 00 00 00 00 00 00 00 00 00 00 00 00 00 00  |................|
 BDBE  00 00 00 00 00 00 00 00 00 00 00 00 00 00 00 00  |................|
 BDCE  00 00 00 00 00 00 00 00 00 00 00 00 00 00 00 00  |................|
 BDDE  00 00 00 00 00 00 00 00 00 00 00 00 00 00 00 00  |................|
 BDEE  00 00 00 00 00 00 00 00 00 00 00 00 00 00 00 00  |................|
 BDFE  00 00 3E 3E 3E 3E 3E 3E 3E 3E 3E 3E 3E 3E 3E 3E  |..>>>>>>>>>>>>>>|
 BE0E  3E 3E 3E 3E 3E 3E 3E 3E 3E 3E 3E 3E 3E 3E 3E 3E  |>>>>>>>>>>>>>>>>|
 BE1E  3E 3E 3E 3E 3E 3E 3E 3E 3E 3E 3E 3E 3E 3E 3E 3E  |>>>>>>>>>>>>>>>>|
 BE2E  3E 3E 3E 3E 3E 3E 3E 3E 3E 3E 3E 3E 3E 3E 3E 3E  |>>>>>>>>>>>>>>>>|
 BE3E  3E 3E 3E 3E 3E 3E 3E 3E 3E 3E 3E 3E 3E 3E 3E 3E  |>>>>>>>>>>>>>>>>|
 BE4E  3E 3E 3E 3E 3E 3E 3E 3E 3E 3E 3E 3E 3E 3E 3E 3E  |>>>>>>>>>>>>>>>>|
 BE5E  3E 3E 3E 3E 3E 3E 3E 3E 3E 3E 3E 3E 3E 3E 3E 3E  |>>>>>>>>>>>>>>>>|
 BE6E  3E 3E 3E 3E 3E 3E 3E 3E 3E 3E 3E 3E 3E 3E 3E 3E  |>>>>>>>>>>>>>>>>|
 BE7E  3E 3E 3E 3E 3E 3E 3E 3E 3E 3E 3E 3E 3E 3E 3E 3E  |>>>>>>>>>>>>>>>>|
 BE8E  3E 3E 3E 3E 3E 3E 3E 3E 3E 3E 3E 3E 3E 3E 3E 3E  |>>>>>>>>>>>>>>>>|
 BE9E  3E 3E 3E 3E 3E 3E 3E 3E 3E 3E 3E 3E 3E 3E 3E 3E  |>>>>>>>>>>>>>>>>|
 BEAE  3E 3E 3E 3E 3E 3E 3E 3E 3E 3E 3E 3E 3E 3E 3E 3E  |>>>>>>>>>>>>>>>>|
 BEBE  3E 3E 3E 3E 3E 3E 3E 3E 3E 3E 3E 3E 3E 3E 3E 3E  |>>>>>>>>>>>>>>>>|
 BECE  3E 3E 3E 3E 3E 3E 3E 3E 3E 3E 3E 3E 3E 3E 3E 3E  |>>>>>>>>>>>>>>>>|
 BEDE  3E 3E 3E 3E 3E 3E 3E 3E 3E 3E 3E 3E 3E 3E 3E 3E  |>>>>>>>>>>>>>>>>|
 BEEE  3E 3E 3E 3E 3E 3E 3E 3E 3E 3E 3E 3E 3E 3E 3E 3E  |>>>>>>>>>>>>>>>>|
 BEFE  3E 3E 00 00 00 00 00 00 00 00 00 00 00 00 00 00  |>>..............|
 BF0E  00 00 00 00 00 00 00 00 00 00 00 00 00 00 00 00  |................|
 BF1E  00 00 00 00 00 00 00 00 00 00 00 00 00 00 00 00  |................|
 BF2E  00 00 00 00 00 00 00 00 00 3F 3F 3F 3F 3F 3F 3F  |.........???????|
 BF3E  3F 3F 3F 3F 3F 3F 3F 3F 3F 3F 3F 3F 3F 3F 3F 3F  |????????????????|
 BF4E  3F 3F 3F 3F 3F 3F 3F 3F 3F 3F 3F 3F 3F 3F 3F 3F  |????????????????|
 BF5E  3F 3F 3F 3F 3F 3F 3F 3F 3F 3F 3F 3F 3F 3F 3F 3F  |????????????????|
 BF6E  3F 3F 3F 3F 3F 3F 3F 3F 3F 3F 3F 3F 3F 3F 3F 3F  |????????????????|
 BF7E  3F 3F 3F 3F 3F 3F 3F 3F 3F 3F 3F 3F 3F 3F 3F 3F  |????????????????|
 BF8E  3F 3F 3F 3F 3F 3F 3F 3F 3F 3F 3F 3F 3F 3F 3F 3F  |????????????????|
 BF9E  3F 3F 3F 3F 3F 3F 3F 3F 3F 3F 3F 3F 3F 3F 3F 3F  |????????????????|
 BFAE  3F 3F 3F 3F 3F 3F 3F 3F 3F 3F 3F 3F 3F 3F 3F 3F  |????????????????|
 BFBE  3F 3F 3F 3F 3F 3F 3F 3F 3F 3F 3F 3F 3F 3F 3F 3F  |????????????????|
 BFCE  3F 3F 3F 3F 3F 3F 3F 3F 3F 3F 3F 3F 3F 3F 3F 3F  |????????????????|
 BFDE  3F 3F 3F 3F 3F 3F 3F 3F 3F 3F 3F 3F 3F 3F 3F 3F  |????????????????|
 BFEE  3F 3F 3F 3F 3F 3F 3F 3F 3F 3F 3F 3F 3F 3F 3F 3F  |????????????????|
 BFFE  3F 3F                                            |??              |
